                                
                                        ORG     0000h
                                
                                        ; Referenced from 0885
                                        ; --- START PROC L0000 ---
0000: F3                        L0000:  DI
0001: ED 56                             IM      1
0003: 31 20 1B                          LD      SP,1B20h
0006: C3 8A 08                          JP      L088A
                                
0009: 00                        L0009:  NOP
000A: 00                                NOP
000B: 00                                NOP
000C: 00                                NOP
000D: FF                                RST     0x38
                                
000E: FF                        L000E:  RST     0x38
                                
000F: FF                        L000F:  RST     0x38
                                
0010: FF                        L0010:  RST     0x38
                                
0011: 00                        L0011:  NOP
0012: 00                                NOP
0013: 00                                NOP
0014: 00                                NOP
0015: 00                                NOP
0016: 00                                NOP
0017: 00                                NOP
0018: 00                                NOP
0019: 00                                NOP
001A: 00                                NOP
001B: 00                                NOP
001C: 00                                NOP
001D: 00                                NOP
001E: 00                                NOP
001F: 00                                NOP
0020: 00                                NOP
0021: 00                                NOP
0022: 00                                NOP
0023: 00                                NOP
0024: 00                                NOP
0025: 00                                NOP
0026: 00                                NOP
0027: 00                                NOP
0028: 00                                NOP
0029: 00                                NOP
002A: 00                                NOP
002B: 00                                NOP
002C: 00                                NOP
002D: 00                                NOP
002E: 00                                NOP
002F: 00                                NOP
0030: 00                                NOP
0031: 00                                NOP
0032: 00                                NOP
0033: 00                                NOP
0034: 00                                NOP
0035: 00                                NOP
                                
                                        ; Referenced from 01D9, 090C
0036: 00                        L0036:  NOP
                                
                                        ; Referenced from 01DD, 01F0, 0910
0037: 00                        L0037:  NOP
0038: ED 73 3E 00                       LD      (L003E),SP
003C: ED 4D                             RETI
                                
                                        ; Referenced from 0038
003E: 00                        L003E:  NOP
003F: 00                                NOP
                                
                                        ; Referenced from 08CF, 08D6
0040: 00                        L0040:  NOP
                                
                                        ; Referenced from 0310, 0430, 08BE, 08CA, 08DC, 08FA, 0900, 0906, 0FAE, 11FD
                                        ; --- START PROC L0041 ---
0041: F3                        L0041:  DI
0042: F5                                PUSH    AF
0043: E5                                PUSH    HL
0044: 21 3F 00                          LD      HL,003Fh
0047: 7E                                LD      A,(HL)
0048: B7                                OR      A
0049: 28 17                             JR      Z,L0062
004B: 36 00                             LD      (HL),00h
004D: 23                                INC     HL
004E: 34                                INC     (HL)
004F: CD B7 02                          CALL    L02B7
0052: D5                                PUSH    DE
0053: 2A 87 08                          LD      HL,(L0885+2)    ; reference not aligned to instruction
0056: ED 5B 85 08                       LD      DE,(L0885)
005A: 19                                ADD     HL,DE
005B: 22 87 08                          LD      (L0885+2),HL    ; reference not aligned to instruction
005E: D1                                POP     DE
005F: CD B7 02                          CALL    L02B7
                                
                                        ; Referenced from 0049
0062: E1                        L0062:  POP     HL
0063: F1                                POP     AF
0064: FB                                EI
0065: C9                                RET
                                
                                        ; Referenced from 08D9
                                        ; --- START PROC L0066 ---
0066: FD 21 09 00               L0066:  LD      IY,0009h
006A: 21 11 7F                          LD      HL,7F11h
006D: 16 80                             LD      D,80h
006F: 1E 04                             LD      E,04h
                                
                                        ; Referenced from 0163
0071: CD B7 02                  L0071:  CALL    L02B7
0074: FD 4E 00                          LD      C,(IY+00h)
0077: FD 36 00 00                       LD      (IY+00h),00h
007B: CB 51                             BIT     2,C
007D: 28 19                             JR      Z,L0098
007F: FD 36 04 FF                       LD      (IY+04h),0FFh
0083: FD 36 28 01                       LD      (IY+28h),01h
0087: FD 36 18 00                       LD      (IY+18h),00h
008B: 3E 01                             LD      A,01h
008D: BB                                CP      E
008E: 20 08                             JR      NZ,L0098
0090: DD 21 AB 17                       LD      IX,17ABh
0094: DD CB 00 AE                       RES     5,(IX+00h)
                                
                                        ; Referenced from 007D, 008E
0098: CB 49                     L0098:  BIT     1,C
009A: 28 0F                             JR      Z,L00AB
009C: FD 7E 18                          LD      A,(IY+18h)
009F: FE 00                             CP      00h
00A1: 28 08                             JR      Z,L00AB
00A3: FD 36 28 01                       LD      (IY+28h),01h
00A7: FD 36 18 04                       LD      (IY+18h),04h
                                
                                        ; Referenced from 009A, 00A1
00AB: CB 41                     L00AB:  BIT     0,C
00AD: 28 1A                             JR      Z,L00C9
00AF: FD 36 04 FF                       LD      (IY+04h),0FFh
00B3: FD 7E 1C                          LD      A,(IY+1Ch)
00B6: B2                                OR      D
00B7: 77                                LD      (HL),A
00B8: 3E 01                             LD      A,01h
00BA: BB                                CP      E
00BB: 28 04                             JR      Z,L00C1
00BD: FD 7E 20                          LD      A,(IY+20h)
00C0: 77                                LD      (HL),A
                                
                                        ; Referenced from 00BB
00C1: FD 36 28 01               L00C1:  LD      (IY+28h),01h
00C5: FD 36 18 01                       LD      (IY+18h),01h
                                
                                        ; Referenced from 00AD
00C9: CD B7 02                  L00C9:  CALL    L02B7
00CC: FD 7E 18                          LD      A,(IY+18h)
00CF: FE 00                             CP      00h
00D1: CA 5C 01                          JP      Z,L015C
00D4: FE 01                             CP      01h
00D6: 20 26                             JR      NZ,L00FE
00D8: FD 36 28 01                       LD      (IY+28h),01h
00DC: FD 7E 04                          LD      A,(IY+04h)
00DF: FD 46 24                          LD      B,(IY+24h)
00E2: FD 96 08                          SUB     (IY+08h)
00E5: 38 0D                             JR      C,L00F4
00E7: 28 0B                             JR      Z,L00F4
00E9: B8                                CP      B
00EA: 38 08                             JR      C,L00F4
00EC: 28 06                             JR      Z,L00F4
00EE: FD 77 04                          LD      (IY+04h),A
00F1: C3 5C 01                          JP      L015C
                                
                                        ; Referenced from 00E5, 00E7, 00EA, 00EC
00F4: FD 70 04                  L00F4:  LD      (IY+04h),B
00F7: FD 36 18 02                       LD      (IY+18h),02h
00FB: C3 5C 01                          JP      L015C
                                
                                        ; Referenced from 00D6
00FE: FE 02                     L00FE:  CP      02h
0100: C2 32 01                          JP      NZ,L0132
0103: FD 36 28 01                       LD      (IY+28h),01h
0107: FD 7E 04                          LD      A,(IY+04h)
010A: FD 46 10                          LD      B,(IY+10h)
010D: B8                                CP      B
010E: 38 0C                             JR      C,L011C
0110: 28 17                             JR      Z,L0129
0112: FD 96 0C                          SUB     (IY+0Ch)
0115: 38 12                             JR      C,L0129
0117: B8                                CP      B
0118: 38 0F                             JR      C,L0129
011A: 18 08                             JR      L0124
                                
                                        ; Referenced from 010E
011C: FD 86 0C                  L011C:  ADD     A,(IY+0Ch)
011F: 38 08                             JR      C,L0129
0121: B8                                CP      B
0122: 30 05                             JR      NC,L0129
                                
                                        ; Referenced from 011A
0124: FD 77 04                  L0124:  LD      (IY+04h),A
0127: 18 33                             JR      L015C
                                
                                        ; Referenced from 0110, 0115, 0118, 011F, 0122
0129: FD 70 04                  L0129:  LD      (IY+04h),B
012C: FD 36 18 03                       LD      (IY+18h),03h
0130: 18 2A                             JR      L015C
                                
                                        ; Referenced from 0100
0132: FE 04                     L0132:  CP      04h
0134: 20 26                             JR      NZ,L015C
0136: FD 36 28 01                       LD      (IY+28h),01h
013A: FD 7E 04                          LD      A,(IY+04h)
013D: FD 86 14                          ADD     A,(IY+14h)
0140: 38 05                             JR      C,L0147
0142: FD 77 04                          LD      (IY+04h),A
0145: 18 15                             JR      L015C
                                
                                        ; Referenced from 0140
0147: FD 36 04 FF               L0147:  LD      (IY+04h),0FFh
014B: FD 36 18 00                       LD      (IY+18h),00h
014F: 3E 01                             LD      A,01h
0151: BB                                CP      E
0152: 20 08                             JR      NZ,L015C
0154: DD 21 AB 17                       LD      IX,17ABh
0158: DD CB 00 AE                       RES     5,(IX+00h)
                                
                                        ; Referenced from 00D1, 00F1, 00FB, 0127, 0130, 0134, 0145, 0152
015C: FD 23                     L015C:  INC     IY
015E: 3E 20                             LD      A,20h           ; ' '
0160: 82                                ADD     A,D
0161: 57                                LD      D,A
0162: 1D                                DEC     E
0163: C2 71 00                          JP      NZ,L0071
0166: CD B7 02                          CALL    L02B7
0169: FD 21 09 00                       LD      IY,0009h
016D: FD CB 28 46                       BIT     0,(IY+28h)
0171: 28 12                             JR      Z,L0185
0173: FD 36 28 00                       LD      (IY+28h),00h
0177: FD 7E 04                          LD      A,(IY+04h)
017A: CB 3F                             SRL     A
017C: CB 3F                             SRL     A
017E: CB 3F                             SRL     A
0180: CB 3F                             SRL     A
0182: F6 90                             OR      90h
0184: 77                                LD      (HL),A
                                
                                        ; Referenced from 0171
0185: FD CB 29 46               L0185:  BIT     0,(IY+29h)
0189: 28 12                             JR      Z,L019D
018B: FD 36 29 00                       LD      (IY+29h),00h
018F: FD 7E 05                          LD      A,(IY+05h)
0192: CB 3F                             SRL     A
0194: CB 3F                             SRL     A
0196: CB 3F                             SRL     A
0198: CB 3F                             SRL     A
019A: F6 B0                             OR      0B0h
019C: 77                                LD      (HL),A
                                
                                        ; Referenced from 0189
019D: FD CB 2A 46               L019D:  BIT     0,(IY+2Ah)
01A1: 28 12                             JR      Z,L01B5
01A3: FD 36 2A 00                       LD      (IY+2Ah),00h
01A7: FD 7E 06                          LD      A,(IY+06h)
01AA: CB 3F                             SRL     A
01AC: CB 3F                             SRL     A
01AE: CB 3F                             SRL     A
01B0: CB 3F                             SRL     A
01B2: F6 D0                             OR      0D0h
01B4: 77                                LD      (HL),A
                                
                                        ; Referenced from 01A1
01B5: FD CB 2B 46               L01B5:  BIT     0,(IY+2Bh)
01B9: 28 12                             JR      Z,L01CD
01BB: FD 36 2B 00                       LD      (IY+2Bh),00h
01BF: FD 7E 07                          LD      A,(IY+07h)
01C2: CB 3F                             SRL     A
01C4: CB 3F                             SRL     A
01C6: CB 3F                             SRL     A
01C8: CB 3F                             SRL     A
01CA: F6 F0                             OR      0F0h
01CC: 77                                LD      (HL),A
                                
                                        ; Referenced from 01B9
01CD: CD B7 02                  L01CD:  CALL    L02B7
01D0: C9                                RET
                                
                                        ; Referenced from 086C, 0917, 091F, 09A7, 09B1, 09B5, 09C5, 09CE, 09D7, 09DB, 0A09, 0A0C, 0A12, 0A1F, 0A37, 0A4B, 0A54, 0A62, 0A99, 0AB0, 0AD9, 0ADD, 0AE1, 0B16, 0B1C, 0B2B, 0B35, 0B72, 0B7B, 0F3E, 0F44, 1710
                                        ; --- START PROC L01D1 ---
01D1: C5                        L01D1:  PUSH    BC
01D2: E5                                PUSH    HL
                                
                                        ; Referenced from 01E1
01D3: CD B7 02                  L01D3:  CALL    L02B7
01D6: CD 02 03                          CALL    L0302
01D9: 3A 36 00                          LD      A,(L0036)
01DC: 47                                LD      B,A
01DD: 3A 37 00                          LD      A,(L0037)
01E0: B8                                CP      B
01E1: 28 F0                             JR      Z,L01D3
01E3: 06 00                             LD      B,00h
01E5: 4F                                LD      C,A
01E6: 21 40 1B                          LD      HL,1B40h
01E9: CD B7 02                          CALL    L02B7
01EC: 09                                ADD     HL,BC
01ED: 3C                                INC     A
01EE: E6 3F                             AND     3Fh             ; '?'
01F0: 32 37 00                          LD      (L0037),A
01F3: 7E                                LD      A,(HL)
01F4: E1                                POP     HL
01F5: C1                                POP     BC
01F6: C9                                RET
                                
                                        ; Referenced from 0202, 020F, 0220
01F7: 00                        L01F7:  NOP
                                
                                        ; Referenced from 022A
01F8: 00                        L01F8:  NOP
                                
                                        ; Referenced from 0344, 0374, 03B7, 044C, 0BCE, 0BE3, 0E5A, 0E71, 1332, 172D, 1743
                                        ; --- START PROC L01F9 ---
01F9: CD B7 02                  L01F9:  CALL    L02B7
01FC: DD E5                             PUSH    IX
01FE: DD 21 20 1B                       LD      IX,1B20h
0202: 22 F7 01                          LD      (L01F7),HL
0205: CB BC                             RES     7,H
0207: 06 00                             LD      B,00h
0209: 0D                                DEC     C
020A: 09                                ADD     HL,BC
020B: CB 7C                             BIT     7,H
020D: 20 0B                             JR      NZ,L021A
020F: 2A F7 01                          LD      HL,(L01F7)
0212: 0C                                INC     C
0213: 47                                LD      B,A
0214: CD 3D 02                          CALL    L023D
0217: DD E1                             POP     IX
0219: C9                                RET
                                
                                        ; Referenced from 020D
021A: 47                        L021A:  LD      B,A
021B: C5                                PUSH    BC
021C: E5                                PUSH    HL
021D: 79                                LD      A,C
021E: 95                                SUB     L
021F: 4F                                LD      C,A
0220: 2A F7 01                          LD      HL,(L01F7)
0223: CD 3D 02                          CALL    L023D
0226: E1                                POP     HL
0227: C1                                POP     BC
0228: 4D                                LD      C,L
0229: 0C                                INC     C
022A: 3A F8 01                          LD      A,(L01F8)
022D: E6 80                             AND     80h
022F: C6 80                             ADD     A,80h
0231: 67                                LD      H,A
0232: 2E 00                             LD      L,00h
0234: 30 01                             JR      NC,L0237
0236: 04                                INC     B
                                
                                        ; Referenced from 0234
0237: CD 3D 02                  L0237:  CALL    L023D
023A: DD E1                             POP     IX
023C: C9                                RET
                                
                                        ; Referenced from 0214, 0223, 0237
                                        ; --- START PROC L023D ---
023D: CD B7 02                  L023D:  CALL    L02B7
0240: D5                                PUSH    DE
0241: 11 00 60                          LD      DE,6000h
0244: 7C                                LD      A,H
0245: CB 07                             RLC     A
0247: 12                                LD      (DE),A
0248: 78                                LD      A,B
0249: 12                                LD      (DE),A
024A: 1F                                RRA
024B: 12                                LD      (DE),A
024C: 1F                                RRA
024D: 12                                LD      (DE),A
024E: 1F                                RRA
024F: 12                                LD      (DE),A
0250: 1F                                RRA
0251: 12                                LD      (DE),A
0252: 1F                                RRA
0253: 12                                LD      (DE),A
0254: 1F                                RRA
0255: 12                                LD      (DE),A
0256: 1F                                RRA
0257: 12                                LD      (DE),A
0258: D1                                POP     DE
0259: CB FC                             SET     7,H
025B: 79                                LD      A,C
025C: 06 00                             LD      B,00h
025E: CD B7 02                          CALL    L02B7
0261: DD CB 01 C6                       SET     0,(IX+01h)
0265: D6 07                             SUB     07h
0267: 38 11                             JR      C,L027A
                                
                                        ; Referenced from 0278
0269: 0E 06                     L0269:  LD      C,06h
026B: DD CB 00 46                       BIT     0,(IX+00h)
026F: 20 1C                             JR      NZ,L028D
                                
                                        ; Referenced from 029E
0271: ED B0                     L0271:  LDIR
0273: CD B7 02                          CALL    L02B7
0276: D6 06                             SUB     06h
0278: 30 EF                             JR      NC,L0269
                                
                                        ; Referenced from 0267
027A: C6 07                     L027A:  ADD     A,07h
027C: 4F                                LD      C,A
027D: DD CB 00 46                       BIT     0,(IX+00h)
0281: 20 1D                             JR      NZ,L02A0
                                
                                        ; Referenced from 02B1
0283: ED B0                     L0283:  LDIR
0285: CD B7 02                          CALL    L02B7
0288: DD CB 01 86                       RES     0,(IX+01h)
028C: C9                                RET
                                
                                        ; Referenced from 026F
028D: DD CB 01 86               L028D:  RES     0,(IX+01h)
                                
                                        ; Referenced from 0298
0291: CD B7 02                  L0291:  CALL    L02B7
0294: DD CB 00 46                       BIT     0,(IX+00h)
0298: 20 F7                             JR      NZ,L0291
029A: DD CB 01 C6                       SET     0,(IX+01h)
029E: 18 D1                             JR      L0271
                                
                                        ; Referenced from 0281
02A0: DD CB 01 86               L02A0:  RES     0,(IX+01h)
                                
                                        ; Referenced from 02AB
02A4: CD B7 02                  L02A4:  CALL    L02B7
02A7: DD CB 00 46                       BIT     0,(IX+00h)
02AB: 20 F7                             JR      NZ,L02A4
02AD: DD CB 01 C6                       SET     0,(IX+01h)
02B1: 18 D0                             JR      L0283
                                
                                        ; Referenced from 02D1, 08B0
02B3: 00                        L02B3:  NOP
                                
                                        ; Referenced from 02D7
02B4: 00                        L02B4:  NOP
                                
                                        ; Referenced from 08B6, 13F5
02B5: 00                        L02B5:  NOP
02B6: 00                                NOP
                                
                                        ; Referenced from 004F, 005F, 0071, 00C9, 0166, 01CD, 01D3, 01E9, 01F9, 023D, 025E, 0273, 0285, 0291, 02A4, 02D4, 02DA, 02E2, 02E7, 0314, 03CE, 03EF, 0410, 0429, 042D, 0472, 04A2, 0522, 07F5, 08AD, 08BB, 08C1, 08C7, 08E1, 0D60, 0EAB, 0EEA, 0FB5, 1026, 104C, 1089, 109F, 10BA, 10F4, 110B, 112C, 11E5, 12E6, 13D3, 13D8, 1425, 145F, 1666, 1676, 1685, 16B6, 16D8, 17CD, 1822
                                        ; --- START PROC L02B7 ---
02B7: 18 26                     L02B7:  JR      L02DF
                                
02B9: 36 27                     L02B9:  LD      (HL),27h        ; '''
                                
                                        ; Referenced from 02BD
02BB: CB 46                     L02BB:  BIT     0,(HL)
02BD: CA BB 02                          JP      Z,L02BB
02C0: 2C                                INC     L
02C1: 70                                LD      (HL),B
02C2: 2D                                DEC     L
02C3: 1A                                LD      A,(DE)
                                
                                        ; Referenced from 08B3, 13FC
02C4: 18 26                     L02C4:  JR      L02EC
                                
02C6: 00                        L02C6:  NOP
02C7: 1C                                INC     E
                                
                                        ; Referenced from 02F6
02C8: 36 2A                     L02C8:  LD      (HL),2Ah        ; '*'
02CA: 23                                INC     HL
02CB: 77                                LD      (HL),A
02CC: 2D                                DEC     L
02CD: 08                                EX      AF,AF'
02CE: D9                                EXX
                                
                                        ; Referenced from 13E8
02CF: C9                        L02CF:  RET
                                
02D0: 08                        L02D0:  EX      AF,AF'
02D1: 3A B3 02                          LD      A,(L02B3)
02D4: 32 B7 02                          LD      (L02B7),A
02D7: 3A B4 02                          LD      A,(L02B4)
02DA: 32 B8 02                          LD      (L02B7+1),A     ; reference not aligned to instruction
02DD: 08                                EX      AF,AF'
02DE: C9                                RET
                                
                                        ; Referenced from 02B7
02DF: 08                        L02DF:  EX      AF,AF'
02E0: 3E D9                             LD      A,0D9h
02E2: 32 B7 02                          LD      (L02B7),A
02E5: 3E 08                             LD      A,08h
02E7: 32 B8 02                          LD      (L02B7+1),A     ; reference not aligned to instruction
02EA: 08                                EX      AF,AF'
02EB: C9                                RET
                                
                                        ; Referenced from 02C4
02EC: CB 09                     L02EC:  RRC     C
02EE: 38 08                             JR      C,L02F8
02F0: 17                                RLA
02F1: 17                                RLA
02F2: 17                                RLA
02F3: 17                                RLA
                                
                                        ; Referenced from 02F9
02F4: E6 F0                     L02F4:  AND     0F0h
02F6: 18 D0                             JR      L02C8
                                
                                        ; Referenced from 02EE
02F8: 1C                        L02F8:  INC     E
02F9: 18 F9                             JR      L02F4
                                
                                        ; Referenced from 0304, 0335, 033B, 0365, 036B, 13BE
02FB: 00                        L02FB:  NOP
                                
                                        ; Referenced from 033E, 0347, 0353, 036E, 0380, 0394, 03B0, 03BB, 03C4, 13AD
02FC: 00                        L02FC:  NOP
02FD: 00                                NOP
                                
                                        ; Referenced from 0341, 034A, 0356, 0371, 0383, 0397, 03B3, 03BE, 03C7, 13B0
02FE: 00                        L02FE:  NOP
                                
                                        ; Referenced from 0322, 0330, 039A, 03A6, 03AD, 13B6
02FF: 00                        L02FF:  NOP
0300: 00                                NOP
                                
                                        ; Referenced from 031A, 0378, 13CB, 1701
0301: 00                        L0301:  NOP
                                
                                        ; Referenced from 01D6, 03D1, 04A7, 08C4, 0D63, 11FA, 13BB
                                        ; --- START PROC L0302 ---
0302: C9                        L0302:  RET
                                
0303: F5                        L0303:  PUSH    AF
0304: 3A FB 02                          LD      A,(L02FB)
0307: D9                                EXX
0308: AB                                XOR     E
0309: D9                                EXX
030A: E6 80                             AND     80h
030C: 20 06                             JR      NZ,L0314
030E: F1                                POP     AF
030F: C9                                RET
                                
                                        ; Referenced from 13CE
                                        ; --- START PROC L0310 ---
0310: CD 41 00                  L0310:  CALL    L0041
0313: F5                                PUSH    AF
                                
                                        ; Referenced from 030C
0314: CD B7 02                  L0314:  CALL    L02B7
0317: C5                                PUSH    BC
0318: D5                                PUSH    DE
0319: E5                                PUSH    HL
031A: 3A 01 03                          LD      A,(L0301)
031D: FE 07                             CP      07h
031F: D2 CC 03                          JP      NC,L03CC
0322: 2A FF 02                          LD      HL,(L02FF)
0325: 01 80 00                          LD      BC,0080h
0328: 37                                SCF
0329: 3F                                CCF
032A: ED 42                             SBC     HL,BC
032C: 38 2E                             JR      C,L035C
032E: 28 2C                             JR      Z,L035C
0330: 22 FF 02                          LD      (L02FF),HL
0333: 16 1F                             LD      D,1Fh
0335: 3A FB 02                          LD      A,(L02FB)
0338: 5F                                LD      E,A
0339: C6 80                             ADD     A,80h
033B: 32 FB 02                          LD      (L02FB),A
033E: 2A FC 02                          LD      HL,(L02FC)
0341: 3A FE 02                          LD      A,(L02FE)
0344: CD F9 01                          CALL    L01F9
0347: 2A FC 02                          LD      HL,(L02FC)
034A: 3A FE 02                          LD      A,(L02FE)
034D: 01 80 00                          LD      BC,0080h
0350: 09                                ADD     HL,BC
0351: CE 00                             ADC     A,00h
0353: 22 FC 02                          LD      (L02FC),HL
0356: 32 FE 02                          LD      (L02FE),A
0359: C3 EA 03                          JP      L03EA
                                
                                        ; Referenced from 032C, 032E
035C: 7D                        L035C:  LD      A,L
035D: C6 80                             ADD     A,80h
035F: 4F                                LD      C,A
0360: 06 00                             LD      B,00h
0362: C5                                PUSH    BC
0363: 16 1F                             LD      D,1Fh
0365: 3A FB 02                          LD      A,(L02FB)
0368: 5F                                LD      E,A
0369: C6 80                             ADD     A,80h
036B: 32 FB 02                          LD      (L02FB),A
036E: 2A FC 02                          LD      HL,(L02FC)
0371: 3A FE 02                          LD      A,(L02FE)
0374: CD F9 01                          CALL    L01F9
0377: C1                                POP     BC
0378: 3A 01 03                          LD      A,(L0301)
037B: FE 05                             CP      05h
037D: C2 CC 03                          JP      NZ,L03CC
0380: 2A FC 02                          LD      HL,(L02FC)
0383: 3A FE 02                          LD      A,(L02FE)
0386: C5                                PUSH    BC
0387: 09                                ADD     HL,BC
0388: CE 00                             ADC     A,00h
038A: ED 4B 08 14                       LD      BC,(L1408)
038E: 37                                SCF
038F: 3F                                CCF
0390: ED 42                             SBC     HL,BC
0392: DE 00                             SBC     A,00h
0394: 22 FC 02                          LD      (L02FC),HL
0397: 32 FE 02                          LD      (L02FE),A
039A: ED 43 FF 02                       LD      (L02FF),BC
039E: C1                                POP     BC
039F: 3E 80                             LD      A,80h
03A1: 91                                SUB     C
03A2: 4F                                LD      C,A
03A3: CA EA 03                          JP      Z,L03EA
03A6: 2A FF 02                          LD      HL,(L02FF)
03A9: 37                                SCF
03AA: 3F                                CCF
03AB: ED 42                             SBC     HL,BC
03AD: 22 FF 02                          LD      (L02FF),HL
03B0: 2A FC 02                          LD      HL,(L02FC)
03B3: 3A FE 02                          LD      A,(L02FE)
03B6: C5                                PUSH    BC
03B7: CD F9 01                          CALL    L01F9
03BA: C1                                POP     BC
03BB: 2A FC 02                          LD      HL,(L02FC)
03BE: 3A FE 02                          LD      A,(L02FE)
03C1: 09                                ADD     HL,BC
03C2: CE 00                             ADC     A,00h
03C4: 22 FC 02                          LD      (L02FC),HL
03C7: 32 FE 02                          LD      (L02FE),A
03CA: 18 1E                             JR      L03EA
                                
                                        ; Referenced from 031F, 037D
03CC: 3E C9                     L03CC:  LD      A,0C9h
03CE: 32 B7 02                          LD      (L02B7),A
03D1: 32 02 03                          LD      (L0302),A
03D4: 21 00 40                          LD      HL,4000h
03D7: 36 2B                             LD      (HL),2Bh        ; '+'
03D9: 23                                INC     HL
03DA: 36 00                             LD      (HL),00h
03DC: 21 8E 17                          LD      HL,178Eh
03DF: 36 C6                             LD      (HL),0C6h
03E1: 23                                INC     HL
03E2: 23                                INC     HL
03E3: 23                                INC     HL
03E4: 23                                INC     HL
03E5: 36 00                             LD      (HL),00h
03E7: 23                                INC     HL
03E8: 36 00                             LD      (HL),00h
                                
                                        ; Referenced from 0359, 03A3, 03CA
03EA: E1                        L03EA:  POP     HL
03EB: D1                                POP     DE
03EC: C1                                POP     BC
03ED: F1                                POP     AF
03EE: C9                                RET
                                
                                        ; Referenced from 04BC, 04EB, 0587, 05A4, 05B9, 05DA, 05FE, 0652, 065D, 069A, 06A3, 06BB, 06C1, 06DA, 06EC, 06F0, 071D, 074F, 0759, 075F, 0769, 076D, 0771
                                        ; --- START PROC L03EF ---
03EF: CD B7 02                  L03EF:  CALL    L02B7
03F2: C5                                PUSH    BC
03F3: E5                                PUSH    HL
03F4: DD 7E 03                          LD      A,(IX+03h)
03F7: DD 96 00                          SUB     (IX+00h)
03FA: 4F                                LD      C,A
03FB: DD 7E 04                          LD      A,(IX+04h)
03FE: DD 9E 01                          SBC     A,(IX+01h)
0401: 20 2A                             JR      NZ,L042D
0403: DD 7E 05                          LD      A,(IX+05h)
0406: DD 9E 02                          SBC     A,(IX+02h)
0409: 20 22                             JR      NZ,L042D
040B: 79                                LD      A,C
040C: FE 10                             CP      10h
040E: 30 1D                             JR      NC,L042D
                                
                                        ; Referenced from 0452
0410: CD B7 02                  L0410:  CALL    L02B7
0413: 06 00                             LD      B,00h
0415: 2A 54 04                          LD      HL,(L0454)
0418: 09                                ADD     HL,BC
0419: 7E                                LD      A,(HL)
041A: DD 34 03                          INC     (IX+03h)
041D: 20 08                             JR      NZ,L0427
041F: DD 34 04                          INC     (IX+04h)
0422: 20 03                             JR      NZ,L0427
0424: DD 34 05                          INC     (IX+05h)
                                
                                        ; Referenced from 041D, 0422
0427: E1                        L0427:  POP     HL
0428: C1                                POP     BC
0429: CD B7 02                          CALL    L02B7
042C: C9                                RET
                                
                                        ; Referenced from 0401, 0409, 040E
042D: CD B7 02                  L042D:  CALL    L02B7
0430: CD 41 00                          CALL    L0041
0433: D5                                PUSH    DE
0434: ED 5B 54 04                       LD      DE,(L0454)
0438: DD 6E 03                          LD      L,(IX+03h)
043B: DD 75 00                          LD      (IX+00h),L
043E: DD 66 04                          LD      H,(IX+04h)
0441: DD 74 01                          LD      (IX+01h),H
0444: DD 7E 05                          LD      A,(IX+05h)
0447: DD 77 02                          LD      (IX+02h),A
044A: 0E 10                             LD      C,10h
044C: CD F9 01                          CALL    L01F9
044F: D1                                POP     DE
0450: 0E 00                             LD      C,00h
0452: 18 BC                             JR      L0410
                                
                                        ; Referenced from 0415, 0434, 045F, 047A, 0480
0454: 00                        L0454:  NOP
0455: 00                                NOP
                                
                                        ; Referenced from 0465, 0483, 0489, 06DE, 09A4, 1200, 123D, 1343, 1462, 170D, 173F, 1751, 1767, 176B
0456: 00                        L0456:  NOP
0457: 00                                NOP
                                
                                        ; Referenced from 0903
                                        ; --- START PROC L0458 ---
0458: DD 21 80 1B               L0458:  LD      IX,1B80h
045C: 21 80 1D                          LD      HL,1D80h
045F: 22 54 04                          LD      (L0454),HL
0462: 21 67 18                          LD      HL,1867h
0465: 22 56 04                          LD      (L0456),HL
0468: 3A 89 08                          LD      A,(L0889)
046B: 4F                                LD      C,A
046C: 3E 10                             LD      A,10h
046E: 06 00                             LD      B,00h
0470: 18 1A                             JR      L048C
                                
                                        ; Referenced from 04B1
0472: CD B7 02                  L0472:  CALL    L02B7
0475: 11 20 00                          LD      DE,0020h
0478: DD 19                             ADD     IX,DE
047A: 2A 54 04                          LD      HL,(L0454)
047D: 1E 10                             LD      E,10h
047F: 19                                ADD     HL,DE
0480: 22 54 04                          LD      (L0454),HL
0483: 2A 56 04                          LD      HL,(L0456)
0486: 1E 27                             LD      E,27h           ; '''
0488: 19                                ADD     HL,DE
0489: 22 56 04                          LD      (L0456),HL
                                
                                        ; Referenced from 0470
048C: DD CB 06 66               L048C:  BIT     4,(IX+06h)
0490: 28 1D                             JR      Z,L04AF
0492: DD CB 06 5E                       BIT     3,(IX+06h)
0496: 20 06                             JR      NZ,L049E
0498: CB 49                             BIT     1,C
049A: 20 06                             JR      NZ,L04A2
049C: 18 11                             JR      L04AF
                                
                                        ; Referenced from 0496
049E: CB 41                     L049E:  BIT     0,C
04A0: 28 0D                             JR      Z,L04AF
                                
                                        ; Referenced from 049A
04A2: CD B7 02                  L04A2:  CALL    L02B7
04A5: F5                                PUSH    AF
04A6: C5                                PUSH    BC
04A7: CD 02 03                          CALL    L0302
04AA: CD B4 04                          CALL    L04B4
04AD: C1                                POP     BC
04AE: F1                                POP     AF
                                
                                        ; Referenced from 0490, 049C, 04A0
04AF: 04                        L04AF:  INC     B
04B0: 3D                                DEC     A
04B1: 20 BF                             JR      NZ,L0472
04B3: C9                                RET
                                
                                        ; Referenced from 04AA
                                        ; --- START PROC L04B4 ---
04B4: DD 34 07                  L04B4:  INC     (IX+07h)
04B7: C0                                RET     NZ
04B8: DD 34 08                          INC     (IX+08h)
04BB: C0                                RET     NZ
                                
                                        ; Referenced from 052D, 0584, 0610, 0631, 064F, 070F, 075C
                                        ; --- START PROC L04BC ---
04BC: CD EF 03                  L04BC:  CALL    L03EF
                                
                                        ; Referenced from 04D5, 04E3
04BF: CB 7F                     L04BF:  BIT     7,A
04C1: CA 0E 05                          JP      Z,L050E
04C4: C5                                PUSH    BC
04C5: CB 77                             BIT     6,A
04C7: 28 0E                             JR      Z,L04D7
04C9: 0E C0                             LD      C,0C0h
04CB: CD E6 04                          CALL    L04E6
04CE: DD 73 09                          LD      (IX+09h),E
04D1: DD 72 0A                          LD      (IX+0Ah),D
04D4: C1                                POP     BC
04D5: 18 E8                             JR      L04BF
                                
                                        ; Referenced from 04C7
04D7: 0E 80                     L04D7:  LD      C,80h
04D9: CD E6 04                          CALL    L04E6
04DC: DD 73 0B                          LD      (IX+0Bh),E
04DF: DD 72 0C                          LD      (IX+0Ch),D
04E2: C1                                POP     BC
04E3: C3 BF 04                          JP      L04BF
                                
                                        ; Referenced from 04CB, 04D9
                                        ; --- START PROC L04E6 ---
04E6: E6 3F                     L04E6:  AND     3Fh             ; '?'
04E8: 5F                                LD      E,A
04E9: 16 00                             LD      D,00h
                                
                                        ; Referenced from 0503
04EB: CD EF 03                  L04EB:  CALL    L03EF
04EE: 47                                LD      B,A
04EF: E6 C0                             AND     0C0h
04F1: B9                                CP      C
04F2: 20 11                             JR      NZ,L0505
04F4: 78                                LD      A,B
04F5: 17                                RLA
04F6: 17                                RLA
04F7: CB 1A                             RR      D
04F9: CB 1B                             RR      E
04FB: 1F                                RRA
04FC: CB 1A                             RR      D
04FE: CB 1B                             RR      E
0500: 1F                                RRA
0501: 53                                LD      D,E
0502: 5F                                LD      E,A
0503: 18 E6                             JR      L04EB
                                
                                        ; Referenced from 04F2
0505: 7B                        L0505:  LD      A,E
0506: 2F                                CPL
0507: 5F                                LD      E,A
0508: 7A                                LD      A,D
0509: 2F                                CPL
050A: 57                                LD      D,A
050B: 13                                INC     DE
050C: 78                                LD      A,B
050D: C9                                RET
                                
                                        ; Referenced from 04C1
                                        ; --- START PROC L050E ---
050E: FE 60                     L050E:  CP      60h             ; '`'
0510: 30 25                             JR      NC,L0537
0512: DD CB 06 4E                       BIT     1,(IX+06h)
0516: 20 0A                             JR      NZ,L0522
0518: C5                                PUSH    BC
0519: DD E5                             PUSH    IX
051B: 4F                                LD      C,A
051C: CD E5 11                          CALL    L11E5
051F: DD E1                             POP     IX
0521: C1                                POP     BC
                                
                                        ; Referenced from 0516, 0545, 0591, 05A1, 05AF, 05B6, 05C3, 05CA, 05E5, 065A, 0681, 0690, 0697, 06A0, 06AF, 06D0, 06D7, 06E4, 06E9, 0716, 0792, 0799, 079F, 07AC, 07B9, 07CA
                                        ; --- START PROC L0522 ---
0522: CD B7 02                  L0522:  CALL    L02B7
0525: DD 5E 09                          LD      E,(IX+09h)
0528: DD 56 0A                          LD      D,(IX+0Ah)
052B: 7A                                LD      A,D
052C: B3                                OR      E
052D: CA BC 04                          JP      Z,L04BC
0530: DD 73 07                          LD      (IX+07h),E
0533: DD 72 08                          LD      (IX+08h),D
0536: C9                                RET
                                
                                        ; Referenced from 0510
0537: D6 60                     L0537:  SUB     60h             ; '`'
0539: CA CD 05                          JP      Z,L05CD
053C: 3D                                DEC     A
053D: CA DA 05                          JP      Z,L05DA
0540: 3D                                DEC     A
0541: CA 87 05                          JP      Z,L0587
0544: 3D                                DEC     A
0545: CA 22 05                          JP      Z,L0522
0548: 3D                                DEC     A
0549: CA E8 05                          JP      Z,L05E8
054C: 3D                                DEC     A
054D: CA 13 06                          JP      Z,L0613
0550: 3D                                DEC     A
0551: CA A4 05                          JP      Z,L05A4
0554: 3D                                DEC     A
0555: CA B9 05                          JP      Z,L05B9
0558: 3D                                DEC     A
0559: CA 52 06                          JP      Z,L0652
055C: 3D                                DEC     A
055D: CA 5D 06                          JP      Z,L065D
0560: 3D                                DEC     A
0561: CA 9A 06                          JP      Z,L069A
0564: 3D                                DEC     A
0565: CA A3 06                          JP      Z,L06A3
0568: 3D                                DEC     A
0569: CA B2 06                          JP      Z,L06B2
056C: 3D                                DEC     A
056D: CA D3 06                          JP      Z,L06D3
0570: 3D                                DEC     A
0571: CA DA 06                          JP      Z,L06DA
0574: 3D                                DEC     A
0575: CA EC 06                          JP      Z,L06EC
0578: 3D                                DEC     A
0579: CA 12 07                          JP      Z,L0712
057C: 3D                                DEC     A
057D: CA 19 07                          JP      Z,L0719
0580: 3D                                DEC     A
0581: CA 6D 07                          JP      Z,L076D
0584: C3 BC 04                          JP      L04BC
                                
                                        ; Referenced from 0541
0587: CD EF 03                  L0587:  CALL    L03EF
058A: DD 77 1D                          LD      (IX+1Dh),A
058D: DD CB 06 76                       BIT     6,(IX+06h)
0591: C2 22 05                          JP      NZ,L0522
0594: C5                                PUSH    BC
0595: DD E5                             PUSH    IX
0597: 58                                LD      E,B
0598: DD 4E 1D                          LD      C,(IX+1Dh)
059B: CD 06 0E                          CALL    L0E06
059E: DD E1                             POP     IX
05A0: C1                                POP     BC
05A1: C3 22 05                          JP      L0522
                                
                                        ; Referenced from 0551
05A4: CD EF 03                  L05A4:  CALL    L03EF
05A7: B7                                OR      A
05A8: C2 B2 05                          JP      NZ,L05B2
05AB: DD CB 06 B6                       RES     6,(IX+06h)
05AF: C3 22 05                          JP      L0522
                                
                                        ; Referenced from 05A8
05B2: DD CB 06 F6               L05B2:  SET     6,(IX+06h)
05B6: C3 22 05                          JP      L0522
                                
                                        ; Referenced from 0555
05B9: CD EF 03                  L05B9:  CALL    L03EF
05BC: B7                                OR      A
05BD: 20 07                             JR      NZ,L05C6
05BF: DD CB 06 BE                       RES     7,(IX+06h)
05C3: C3 22 05                          JP      L0522
                                
                                        ; Referenced from 05BD
05C6: DD CB 06 FE               L05C6:  SET     7,(IX+06h)
05CA: C3 22 05                          JP      L0522
                                
                                        ; Referenced from 0539
05CD: DD 36 06 00               L05CD:  LD      (IX+06h),00h
05D1: DD 36 0B 00                       LD      (IX+0Bh),00h
05D5: DD 36 0C 00                       LD      (IX+0Ch),00h
05D9: C9                                RET
                                
                                        ; Referenced from 053D
05DA: CD EF 03                  L05DA:  CALL    L03EF
05DD: DD 77 0D                          LD      (IX+0Dh),A
05E0: C5                                PUSH    BC
05E1: CD 16 17                          CALL    L1716
05E4: C1                                POP     BC
05E5: C3 22 05                          JP      L0522
                                
                                        ; Referenced from 0549
05E8: DD E5                     L05E8:  PUSH    IX
05EA: FD E1                             POP     IY
05EC: 11 10 00                          LD      DE,0010h
05EF: FD 19                             ADD     IY,DE
05F1: 11 03 00                          LD      DE,0003h
                                
                                        ; Referenced from 05FC
05F4: FD 7E 00                  L05F4:  LD      A,(IY+00h)
05F7: B7                                OR      A
05F8: 28 04                             JR      Z,L05FE
05FA: FD 19                             ADD     IY,DE
05FC: 18 F6                             JR      L05F4
                                
                                        ; Referenced from 05F8
05FE: CD EF 03                  L05FE:  CALL    L03EF
0601: FD 77 00                          LD      (IY+00h),A
0604: DD 7E 03                          LD      A,(IX+03h)
0607: FD 77 01                          LD      (IY+01h),A
060A: DD 7E 04                          LD      A,(IX+04h)
060D: FD 77 02                          LD      (IY+02h),A
0610: C3 BC 04                          JP      L04BC
                                
                                        ; Referenced from 054D
0613: DD E5                     L0613:  PUSH    IX
0615: FD E1                             POP     IY
0617: 11 19 00                          LD      DE,0019h
061A: FD 19                             ADD     IY,DE
061C: 11 FD FF                          LD      DE,0FFFDh
                                
                                        ; Referenced from 0627
061F: FD 7E 00                  L061F:  LD      A,(IY+00h)
0622: B7                                OR      A
0623: 20 04                             JR      NZ,L0629
0625: FD 19                             ADD     IY,DE
0627: 18 F6                             JR      L061F
                                
                                        ; Referenced from 0623
0629: FE 7F                     L0629:  CP      7Fh             ; ''
062B: 28 07                             JR      Z,L0634
062D: 3D                                DEC     A
062E: FD 77 00                          LD      (IY+00h),A
0631: CA BC 04                          JP      Z,L04BC
                                
                                        ; Referenced from 062B
0634: FD 6E 01                  L0634:  LD      L,(IY+01h)
0637: DD 5E 03                          LD      E,(IX+03h)
063A: DD 75 03                          LD      (IX+03h),L
063D: FD 66 02                          LD      H,(IY+02h)
0640: DD 56 04                          LD      D,(IX+04h)
0643: DD 74 04                          LD      (IX+04h),H
0646: 37                                SCF
0647: 3F                                CCF
0648: ED 52                             SBC     HL,DE
064A: 38 03                             JR      C,L064F
064C: DD 35 05                          DEC     (IX+05h)
                                
                                        ; Referenced from 064A
064F: C3 BC 04                  L064F:  JP      L04BC
                                
                                        ; Referenced from 0559
0652: CD EF 03                  L0652:  CALL    L03EF
0655: C6 28                             ADD     A,28h           ; '('
0657: CD F4 0D                          CALL    L0DF4
065A: C3 22 05                          JP      L0522
                                
                                        ; Referenced from 055D
065D: CD EF 03                  L065D:  CALL    L03EF
0660: 67                                LD      H,A
0661: 2E 10                             LD      L,10h
0663: FD 21 80 1B                       LD      IY,1B80h
0667: 11 20 00                          LD      DE,0020h
                                
                                        ; Referenced from 0686
066A: FD CB 06 46               L066A:  BIT     0,(IY+06h)
066E: 28 10                             JR      Z,L0680
0670: FD 7E 0E                          LD      A,(IY+0Eh)
0673: DD BE 0E                          CP      (IX+0Eh)
0676: 20 08                             JR      NZ,L0680
0678: 7C                                LD      A,H
0679: E6 0F                             AND     0Fh
067B: FD BE 0F                          CP      (IY+0Fh)
067E: 28 08                             JR      Z,L0688
                                
                                        ; Referenced from 066E, 0676
0680: 2D                        L0680:  DEC     L
0681: CA 22 05                          JP      Z,L0522
0684: FD 19                             ADD     IY,DE
0686: 18 E2                             JR      L066A
                                
                                        ; Referenced from 067E
0688: CB 64                     L0688:  BIT     4,H
068A: 20 07                             JR      NZ,L0693
068C: FD CB 06 CE                       SET     1,(IY+06h)
0690: C3 22 05                          JP      L0522
                                
                                        ; Referenced from 068A
0693: FD CB 06 8E               L0693:  RES     1,(IY+06h)
0697: C3 22 05                          JP      L0522
                                
                                        ; Referenced from 0561
069A: CD EF 03                  L069A:  CALL    L03EF
069D: DD 77 1C                          LD      (IX+1Ch),A
06A0: C3 22 05                          JP      L0522
                                
                                        ; Referenced from 0565
06A3: CD EF 03                  L06A3:  CALL    L03EF
06A6: DD E5                             PUSH    IX
06A8: C5                                PUSH    BC
06A9: CD B6 0B                          CALL    L0BB6
06AC: C1                                POP     BC
06AD: DD E1                             POP     IX
06AF: C3 22 05                          JP      L0522
                                
                                        ; Referenced from 0569
06B2: FD 21 55 0F               L06B2:  LD      IY,0F55h
06B6: 58                                LD      E,B
06B7: 16 00                             LD      D,00h
06B9: FD 19                             ADD     IY,DE
06BB: CD EF 03                          CALL    L03EF
06BE: FD 77 00                          LD      (IY+00h),A
06C1: CD EF 03                          CALL    L03EF
06C4: FD 77 10                          LD      (IY+10h),A
06C7: FD CB 40 C6                       SET     0,(IY+40h)
06CB: 3E 01                             LD      A,01h
06CD: 32 54 0F                          LD      (L0F54),A
06D0: C3 22 05                          JP      L0522
                                
                                        ; Referenced from 056D
06D3: DD CB 06 DE               L06D3:  SET     3,(IX+06h)
06D7: C3 22 05                          JP      L0522
                                
                                        ; Referenced from 0571
06DA: CD EF 03                  L06DA:  CALL    L03EF
06DD: 57                                LD      D,A
06DE: 2A 56 04                          LD      HL,(L0456)
06E1: 7E                                LD      A,(HL)
06E2: FE 01                             CP      01h
06E4: C2 22 05                          JP      NZ,L0522
06E7: 23                                INC     HL
06E8: 72                                LD      (HL),D
06E9: C3 22 05                          JP      L0522
                                
                                        ; Referenced from 0575
06EC: CD EF 03                  L06EC:  CALL    L03EF
06EF: 6F                                LD      L,A
06F0: CD EF 03                          CALL    L03EF
06F3: 67                                LD      H,A
06F4: 17                                RLA
06F5: 3E 00                             LD      A,00h
06F7: DE 00                             SBC     A,00h
06F9: 57                                LD      D,A
                                
                                        ; Referenced from 0757
06FA: DD 7E 03                  L06FA:  LD      A,(IX+03h)
06FD: 85                                ADD     A,L
06FE: DD 77 03                          LD      (IX+03h),A
0701: DD 7E 04                          LD      A,(IX+04h)
0704: 8C                                ADC     A,H
0705: DD 77 04                          LD      (IX+04h),A
0708: DD 7E 05                          LD      A,(IX+05h)
070B: 8A                                ADC     A,D
070C: DD 77 05                          LD      (IX+05h),A
070F: C3 BC 04                          JP      L04BC
                                
                                        ; Referenced from 0579
0712: CD 5F 07                  L0712:  CALL    L075F
0715: 77                                LD      (HL),A
0716: C3 22 05                          JP      L0522
                                
                                        ; Referenced from 057D
0719: CD 5F 07                  L0719:  CALL    L075F
071C: 57                                LD      D,A
071D: CD EF 03                          CALL    L03EF
0720: 15                                DEC     D
0721: 20 05                             JR      NZ,L0728
0723: BE                                CP      (HL)
0724: 20 33                             JR      NZ,L0759
0726: 18 27                             JR      L074F
                                
                                        ; Referenced from 0721
0728: 15                        L0728:  DEC     D
0729: 20 05                             JR      NZ,L0730
072B: BE                                CP      (HL)
072C: 38 2B                             JR      C,L0759
072E: 18 1F                             JR      L074F
                                
                                        ; Referenced from 0729
0730: 15                        L0730:  DEC     D
0731: 20 07                             JR      NZ,L073A
0733: BE                                CP      (HL)
0734: 38 23                             JR      C,L0759
0736: 28 21                             JR      Z,L0759
0738: 18 15                             JR      L074F
                                
                                        ; Referenced from 0731
073A: 15                        L073A:  DEC     D
073B: 20 07                             JR      NZ,L0744
073D: BE                                CP      (HL)
073E: 38 0F                             JR      C,L074F
0740: 28 0D                             JR      Z,L074F
0742: 18 15                             JR      L0759
                                
                                        ; Referenced from 073B
0744: 15                        L0744:  DEC     D
0745: 20 05                             JR      NZ,L074C
0747: BE                                CP      (HL)
0748: 30 0F                             JR      NC,L0759
074A: 18 03                             JR      L074F
                                
                                        ; Referenced from 0745
074C: BE                        L074C:  CP      (HL)
074D: 28 0A                             JR      Z,L0759
                                
                                        ; Referenced from 0726, 072E, 0738, 073E, 0740, 074A
074F: CD EF 03                  L074F:  CALL    L03EF
0752: 6F                                LD      L,A
0753: 26 00                             LD      H,00h
0755: 16 00                             LD      D,00h
0757: 18 A1                             JR      L06FA
                                
                                        ; Referenced from 0724, 072C, 0734, 0736, 0742, 0748, 074D
0759: CD EF 03                  L0759:  CALL    L03EF
075C: C3 BC 04                          JP      L04BC
                                
                                        ; Referenced from 0712, 0719
                                        ; --- START PROC L075F ---
075F: CD EF 03                  L075F:  CALL    L03EF
0762: 5F                                LD      E,A
0763: 16 00                             LD      D,00h
0765: 21 22 1B                          LD      HL,1B22h
0768: 19                                ADD     HL,DE
0769: CD EF 03                          CALL    L03EF
076C: C9                                RET
                                
                                        ; Referenced from 0581
                                        ; --- START PROC L076D ---
076D: CD EF 03                  L076D:  CALL    L03EF
0770: 57                                LD      D,A
0771: CD EF 03                          CALL    L03EF
0774: 5F                                LD      E,A
0775: 7A                                LD      A,D
0776: FE 00                             CP      00h
0778: CA A2 07                          JP      Z,L07A2
077B: FE 01                             CP      01h
077D: CA AF 07                          JP      Z,L07AF
0780: FE 02                             CP      02h
0782: CA C1 07                          JP      Z,L07C1
0785: FE 03                             CP      03h
0787: CA BC 07                          JP      Z,L07BC
078A: FE 04                             CP      04h
078C: 28 07                             JR      Z,L0795
078E: FE 05                             CP      05h
0790: 28 0A                             JR      Z,L079C
0792: C3 22 05                          JP      L0522
                                
                                        ; Referenced from 078C
0795: 7B                        L0795:  LD      A,E
0796: 32 AE 15                          LD      (L15AE),A
0799: C3 22 05                          JP      L0522
                                
                                        ; Referenced from 0790
079C: DD 73 1E                  L079C:  LD      (IX+1Eh),E
079F: C3 22 05                          JP      L0522
                                
                                        ; Referenced from 0778
07A2: DD E5                     L07A2:  PUSH    IX
07A4: C5                                PUSH    BC
07A5: 7B                                LD      A,E
07A6: CD 77 0C                          CALL    L0C77
07A9: C1                                POP     BC
07AA: DD E1                             POP     IX
07AC: C3 22 05                          JP      L0522
                                
                                        ; Referenced from 077D
07AF: 7B                        L07AF:  LD      A,E
                                
                                        ; Referenced from 07BF
07B0: DD E5                     L07B0:  PUSH    IX
07B2: C5                                PUSH    BC
07B3: CD AA 0C                          CALL    L0CAA
07B6: C1                                POP     BC
07B7: DD E1                             POP     IX
07B9: C3 22 05                          JP      L0522
                                
                                        ; Referenced from 0787
07BC: 3A 22 1B                  L07BC:  LD      A,(1B22h)
07BF: 18 EF                             JR      L07B0
                                
                                        ; Referenced from 0782
07C1: DD E5                     L07C1:  PUSH    IX
07C3: C5                                PUSH    BC
07C4: CD 50 0B                          CALL    L0B50
07C7: C1                                POP     BC
07C8: DD E1                             POP     IX
07CA: C3 22 05                          JP      L0522
                                
                                        ; Referenced from 08FD
                                        ; --- START PROC L07CD ---
07CD: 11 07 00                  L07CD:  LD      DE,0007h
07D0: 3A 89 08                          LD      A,(L0889)
07D3: 47                                LD      B,A
07D4: 26 00                             LD      H,00h
07D6: DD 21 72 17                       LD      IX,1772h
07DA: CD EF 07                          CALL    L07EF
07DD: 24                                INC     H
07DE: DD 21 9D 17                       LD      IX,179Dh
07E2: CD EF 07                          CALL    L07EF
07E5: DD 21 B3 17                       LD      IX,17B3h
07E9: CD EF 07                          CALL    L07EF
07EC: C9                                RET
                                
                                        ; Referenced from 07FE, 0804, 080D, 0814, 0818, 0820, 0825, 0851, 0865, 086A
                                        ; --- START PROC L07ED ---
07ED: DD 19                     L07ED:  ADD     IX,DE
                                
                                        ; Referenced from 07DA, 07E2, 07E9
                                        ; --- START PROC L07EF ---
07EF: DD 7E 00                  L07EF:  LD      A,(IX+00h)
07F2: FE FF                             CP      0FFh
07F4: C8                                RET     Z
07F5: CD B7 02                          CALL    L02B7
07F8: CB 5F                             BIT     3,A
07FA: 20 06                             JR      NZ,L0802
07FC: CB 48                             BIT     1,B
07FE: 28 ED                             JR      Z,L07ED
0800: 18 04                             JR      L0806
                                
                                        ; Referenced from 07FA
0802: CB 40                     L0802:  BIT     0,B
0804: 28 E7                             JR      Z,L07ED
                                
                                        ; Referenced from 0800
0806: CB 77                     L0806:  BIT     6,A
0808: 28 0C                             JR      Z,L0816
080A: DD 35 06                          DEC     (IX+06h)
080D: 20 DE                             JR      NZ,L07ED
080F: CB B7                             RES     6,A
0811: DD 77 00                          LD      (IX+00h),A
0814: 18 D7                             JR      L07ED
                                
                                        ; Referenced from 0808
0816: CB 67                     L0816:  BIT     4,A
0818: 28 D3                             JR      Z,L07ED
081A: E6 07                             AND     07h
081C: 4F                                LD      C,A
081D: DD 34 04                          INC     (IX+04h)
0820: 20 CB                             JR      NZ,L07ED
0822: DD 34 05                          INC     (IX+05h)
0825: 20 C6                             JR      NZ,L07ED
0827: DD CB 00 A6                       RES     4,(IX+00h)
082B: DD CB 00 9E                       RES     3,(IX+00h)
082F: DD 7E 00                          LD      A,(IX+00h)
0832: E6 2F                             AND     2Fh             ; '/'
0834: FE 26                             CP      26h             ; '&'
0836: 28 2F                             JR      Z,L0867
0838: DD CB 00 F6                       SET     6,(IX+00h)
083C: DD CB 00 FE                       SET     7,(IX+00h)
0840: CB 44                             BIT     0,H
0842: 28 0F                             JR      Z,L0853
0844: 59                                LD      E,C
0845: FD 21 09 00                       LD      IY,0009h
0849: FD 19                             ADD     IY,DE
084B: 1E 07                             LD      E,07h
084D: FD CB 00 CE                       SET     1,(IY+00h)
0851: 18 9A                             JR      L07ED
                                
                                        ; Referenced from 0842
0853: FD 21 00 40               L0853:  LD      IY,4000h
0857: 79                                LD      A,C
                                
                                        ; Referenced from 085C
0858: FD CB 00 7E               L0858:  BIT     7,(IY+00h)
085C: 20 FA                             JR      NZ,L0858
085E: FD 36 00 28                       LD      (IY+00h),28h    ; '('
0862: FD 77 01                          LD      (IY+01h),A
0865: 18 86                             JR      L07ED
                                
                                        ; Referenced from 0836
0867: CD F1 16                  L0867:  CALL    L16F1
086A: 18 81                             JR      L07ED
                                
                                        ; Referenced from 099D, 0A1B, 0A34, 0A96, 0AAD, 0B3C, 0B46, 0B6F, 1707
                                        ; --- START PROC L086C ---
086C: CD D1 01                  L086C:  CALL    L01D1
086F: 16 00                             LD      D,00h
0871: 5F                                LD      E,A
0872: CB 23                             SLA     E
0874: CB 23                             SLA     E
0876: CB 23                             SLA     E
0878: CB 23                             SLA     E
087A: CB 23                             SLA     E
087C: CB 12                             RL      D
087E: DD 21 80 1B                       LD      IX,1B80h
0882: DD 19                             ADD     IX,DE
0884: C9                                RET
                                
                                        ; Referenced from 0053, 0056, 005B, 0E02
0885: CC 00 00                  L0885:  CALL    Z,L0000
                                
                                        ; Referenced from 08E4, 08EB
0888: 00                        L0888:  NOP
                                
                                        ; Referenced from 0468, 07D0, 08F4, 0EBC
0889: 00                        L0889:  NOP
                                
                                        ; Referenced from 0006
                                        ; --- START PROC L088A ---
088A: D9                        L088A:  EXX
088B: 06 15                             LD      B,15h
088D: 16 1F                             LD      D,1Fh
088F: 21 00 40                          LD      HL,4000h
0892: D9                                EXX
0893: FB                                EI
0894: 21 11 7F                          LD      HL,7F11h
0897: 36 9F                             LD      (HL),9Fh
0899: 36 BF                             LD      (HL),0BFh
089B: 36 DF                             LD      (HL),0DFh
089D: 36 FF                             LD      (HL),0FFh
089F: 21 67 18                          LD      HL,1867h
08A2: 11 27 00                          LD      DE,0027h
08A5: 06 10                             LD      B,10h
                                
                                        ; Referenced from 08AB
08A7: 36 FF                     L08A7:  LD      (HL),0FFh
08A9: 19                                ADD     HL,DE
08AA: 05                                DEC     B
08AB: 20 FA                             JR      NZ,L08A7
08AD: 2A B7 02                          LD      HL,(L02B7)
08B0: 22 B3 02                          LD      (L02B3),HL
08B3: 2A C4 02                          LD      HL,(L02C4)
08B6: 22 B5 02                          LD      (L02B5),HL
08B9: 3E C9                             LD      A,0C9h
08BB: 32 B7 02                          LD      (L02B7),A
                                
                                        ; Referenced from 0914, 091C, 099A, 09AE, 09BC, 09C2, 09CB, 09D4, 0A00, 0A0F, 0A18, 0A29, 0A31, 0A41, 0A48, 0A51, 0A5A, 0A69, 0A8D, 0A93, 0AA3, 0AAA, 0AB6, 0AD6, 0B0F, 0B23, 0B28, 0B39, 0B43, 0B4D, 0B78, 0B81
                                        ; --- START PROC L08BE ---
08BE: CD 41 00                  L08BE:  CALL    L0041
08C1: CD B7 02                          CALL    L02B7
08C4: CD 02 03                          CALL    L0302
08C7: CD B7 02                          CALL    L02B7
08CA: CD 41 00                          CALL    L0041
08CD: 06 00                             LD      B,00h
08CF: 3A 40 00                          LD      A,(L0040)
08D2: D6 01                             SUB     01h
08D4: 38 0B                             JR      C,L08E1
08D6: 32 40 00                          LD      (L0040),A
08D9: CD 66 00                          CALL    L0066
08DC: CD 41 00                          CALL    L0041
08DF: 06 01                             LD      B,01h
                                
                                        ; Referenced from 08D4
08E1: CD B7 02                  L08E1:  CALL    L02B7
08E4: 3A 88 08                          LD      A,(L0888)
08E7: D6 01                             SUB     01h
08E9: 38 05                             JR      C,L08F0
08EB: 32 88 08                          LD      (L0888),A
08EE: CB C8                             SET     1,B
                                
                                        ; Referenced from 08E9
08F0: 78                        L08F0:  LD      A,B
08F1: B7                                OR      A
08F2: 28 15                             JR      Z,L0909
08F4: 32 89 08                          LD      (L0889),A
08F7: CD A7 0E                          CALL    L0EA7
08FA: CD 41 00                          CALL    L0041
08FD: CD CD 07                          CALL    L07CD
0900: CD 41 00                          CALL    L0041
0903: CD 58 04                          CALL    L0458
0906: CD 41 00                          CALL    L0041
                                
                                        ; Referenced from 08F2
0909: CD A5 0F                  L0909:  CALL    L0FA5
090C: 3A 36 00                          LD      A,(L0036)
090F: 47                                LD      B,A
0910: 3A 37 00                          LD      A,(L0037)
0913: B8                                CP      B
0914: CA BE 08                          JP      Z,L08BE
0917: CD D1 01                          CALL    L01D1
091A: FE FF                             CP      0FFh
091C: C2 BE 08                          JP      NZ,L08BE
091F: CD D1 01                          CALL    L01D1
0922: FE 00                             CP      00h
0924: CA 9D 09                          JP      Z,L099D
0927: FE 01                             CP      01h
0929: CA B1 09                          JP      Z,L09B1
092C: FE 02                             CP      02h
092E: CA BF 09                          JP      Z,L09BF
0931: FE 03                             CP      03h
0933: CA C5 09                          JP      Z,L09C5
0936: FE 04                             CP      04h
0938: CA CE 09                          JP      Z,L09CE
093B: FE 05                             CP      05h
093D: CA 12 0A                          JP      Z,L0A12
0940: FE 06                             CP      06h
0942: CA 1B 0A                          JP      Z,L0A1B
0945: FE 07                             CP      07h
0947: CA 34 0A                          JP      Z,L0A34
094A: FE 0B                             CP      0Bh
094C: CA 5D 0A                          JP      Z,L0A5D
094F: FE 0C                             CP      0Ch
0951: CA 78 0A                          JP      Z,L0A78
0954: FE 0D                             CP      0Dh
0956: CA 90 0A                          JP      Z,L0A90
0959: FE 0E                             CP      0Eh
095B: CA 96 0A                          JP      Z,L0A96
095E: FE 10                             CP      10h
0960: CA 4B 0A                          JP      Z,L0A4B
0963: FE 12                             CP      12h
0965: CA 54 0A                          JP      Z,L0A54
0968: FE 14                             CP      14h
096A: CA AD 0A                          JP      Z,L0AAD
096D: FE 16                             CP      16h
096F: CA B9 0A                          JP      Z,L0AB9
0972: FE 17                             CP      17h
0974: CA D9 0A                          JP      Z,L0AD9
0977: FE 1A                             CP      1Ah
0979: CA 16 0B                          JP      Z,L0B16
097C: FE 1B                             CP      1Bh
097E: CA 2B 0B                          JP      Z,L0B2B
0981: FE 1C                             CP      1Ch
0983: CA 3C 0B                          JP      Z,L0B3C
0986: FE 1D                             CP      1Dh
0988: CA 46 0B                          JP      Z,L0B46
098B: FE 1E                             CP      1Eh
098D: CA D7 09                          JP      Z,L09D7
0990: FE 1F                             CP      1Fh
0992: CA 6F 0B                          JP      Z,L0B6F
0995: FE 20                             CP      20h             ; ' '
0997: CA 7B 0B                          JP      Z,L0B7B
099A: C3 BE 08                          JP      L08BE
                                
                                        ; Referenced from 0924
099D: CD 6C 08                  L099D:  CALL    L086C
09A0: 47                                LD      B,A
09A1: CD 30 11                          CALL    L1130
09A4: 22 56 04                          LD      (L0456),HL
09A7: CD D1 01                          CALL    L01D1
09AA: 4F                                LD      C,A
09AB: CD E5 11                          CALL    L11E5
09AE: C3 BE 08                          JP      L08BE
                                
                                        ; Referenced from 0929
09B1: CD D1 01                  L09B1:  CALL    L01D1
09B4: 47                                LD      B,A
09B5: CD D1 01                          CALL    L01D1
09B8: 4F                                LD      C,A
09B9: CD 7D 16                          CALL    L167D
09BC: C3 BE 08                          JP      L08BE
                                
                                        ; Referenced from 092E
09BF: CD 07 17                  L09BF:  CALL    L1707
09C2: C3 BE 08                          JP      L08BE
                                
                                        ; Referenced from 0933
09C5: CD D1 01                  L09C5:  CALL    L01D1
09C8: CD 47 17                          CALL    L1747
09CB: C3 BE 08                          JP      L08BE
                                
                                        ; Referenced from 0938
09CE: CD D1 01                  L09CE:  CALL    L01D1
09D1: CD 35 0F                          CALL    L0F35
09D4: C3 BE 08                          JP      L08BE
                                
                                        ; Referenced from 098D
09D7: CD D1 01                  L09D7:  CALL    L01D1
09DA: 4F                                LD      C,A
09DB: CD D1 01                          CALL    L01D1
09DE: 67                                LD      H,A
09DF: 2E 00                             LD      L,00h
09E1: DD 21 80 1B                       LD      IX,1B80h
09E5: 11 20 00                          LD      DE,0020h
09E8: 06 10                             LD      B,10h
                                
                                        ; Referenced from 0A07
09EA: DD CB 06 46               L09EA:  BIT     0,(IX+06h)
09EE: 28 13                             JR      Z,L0A03
09F0: DD 7E 0E                          LD      A,(IX+0Eh)
09F3: B9                                CP      C
09F4: 20 0D                             JR      NZ,L0A03
09F6: DD 7E 0F                          LD      A,(IX+0Fh)
09F9: BC                                CP      H
09FA: 20 07                             JR      NZ,L0A03
09FC: 7D                                LD      A,L
09FD: CD 35 0F                          CALL    L0F35
0A00: C3 BE 08                          JP      L08BE
                                
                                        ; Referenced from 09EE, 09F4, 09FA
0A03: DD 19                     L0A03:  ADD     IX,DE
0A05: 2C                                INC     L
0A06: 05                                DEC     B
0A07: 20 E1                             JR      NZ,L09EA
0A09: CD D1 01                          CALL    L01D1
0A0C: CD D1 01                          CALL    L01D1
0A0F: C3 BE 08                          JP      L08BE
                                
                                        ; Referenced from 093D
0A12: CD D1 01                  L0A12:  CALL    L01D1
0A15: CD F4 0D                          CALL    L0DF4
0A18: C3 BE 08                          JP      L08BE
                                
                                        ; Referenced from 0942
0A1B: CD 6C 08                  L0A1B:  CALL    L086C
0A1E: 47                                LD      B,A
0A1F: CD D1 01                          CALL    L01D1
0A22: DD 77 1D                          LD      (IX+1Dh),A
0A25: DD CB 06 76                       BIT     6,(IX+06h)
0A29: C2 BE 08                          JP      NZ,L08BE
0A2C: 4F                                LD      C,A
0A2D: 58                                LD      E,B
0A2E: CD 06 0E                          CALL    L0E06
0A31: C3 BE 08                          JP      L08BE
                                
                                        ; Referenced from 0947
0A34: CD 6C 08                  L0A34:  CALL    L086C
0A37: CD D1 01                          CALL    L01D1
0A3A: B7                                OR      A
0A3B: 28 07                             JR      Z,L0A44
0A3D: DD CB 06 F6                       SET     6,(IX+06h)
0A41: C3 BE 08                          JP      L08BE
                                
                                        ; Referenced from 0A3B
0A44: DD CB 06 B6               L0A44:  RES     6,(IX+06h)
0A48: C3 BE 08                          JP      L08BE
                                
                                        ; Referenced from 0960
0A4B: CD D1 01                  L0A4B:  CALL    L01D1
0A4E: CD B6 0B                          CALL    L0BB6
0A51: C3 BE 08                          JP      L08BE
                                
                                        ; Referenced from 0965
0A54: CD D1 01                  L0A54:  CALL    L01D1
0A57: CD 77 0C                          CALL    L0C77
0A5A: C3 BE 08                          JP      L08BE
                                
                                        ; Referenced from 094C
0A5D: 21 6C 0A                  L0A5D:  LD      HL,0A6Ch
0A60: 06 0C                             LD      B,0Ch
                                
                                        ; Referenced from 0A67
0A62: CD D1 01                  L0A62:  CALL    L01D1
0A65: 77                                LD      (HL),A
0A66: 23                                INC     HL
0A67: 10 F9                             DJNZ    L0A62
0A69: C3 BE 08                          JP      L08BE
                                
                                        ; Referenced from 171F, 1734
0A6C: 00                        L0A6C:  NOP
0A6D: 00                                NOP
                                
                                        ; Referenced from 1722, 1737
0A6E: 00                        L0A6E:  NOP
                                
                                        ; Referenced from 0E4C, 0E61
0A6F: 00                        L0A6F:  NOP
0A70: 00                                NOP
                                
                                        ; Referenced from 0E4F, 0E64
0A71: 00                        L0A71:  NOP
                                
                                        ; Referenced from 0BC0, 0BD5, 0C08
0A72: 00                        L0A72:  NOP
                                
                                        ; Referenced from 0C10
0A73: 00                        L0A73:  NOP
                                
                                        ; Referenced from 0BC3, 0BD8, 0C18
0A74: 00                        L0A74:  NOP
                                
                                        ; Referenced from 1315, 1396
0A75: 00                        L0A75:  NOP
0A76: 00                                NOP
                                
                                        ; Referenced from 1318, 139A
0A77: 00                        L0A77:  NOP
                                
                                        ; Referenced from 0951
0A78: DD 21 80 1B               L0A78:  LD      IX,1B80h
0A7C: 06 10                             LD      B,10h
0A7E: 11 20 00                          LD      DE,0020h
                                
                                        ; Referenced from 0A88
0A81: DD CB 06 A6               L0A81:  RES     4,(IX+06h)
0A85: DD 19                             ADD     IX,DE
0A87: 05                                DEC     B
0A88: 20 F7                             JR      NZ,L0A81
0A8A: CD D2 0C                          CALL    L0CD2
0A8D: C3 BE 08                          JP      L08BE
                                
                                        ; Referenced from 0956
0A90: CD 50 0B                  L0A90:  CALL    L0B50
0A93: C3 BE 08                          JP      L08BE
                                
                                        ; Referenced from 095B
0A96: CD 6C 08                  L0A96:  CALL    L086C
0A99: CD D1 01                          CALL    L01D1
0A9C: B7                                OR      A
0A9D: 28 07                             JR      Z,L0AA6
0A9F: DD CB 06 FE                       SET     7,(IX+06h)
0AA3: C3 BE 08                          JP      L08BE
                                
                                        ; Referenced from 0A9D
0AA6: DD CB 06 BE               L0AA6:  RES     7,(IX+06h)
0AAA: C3 BE 08                          JP      L08BE
                                
                                        ; Referenced from 096A
0AAD: CD 6C 08                  L0AAD:  CALL    L086C
0AB0: CD D1 01                          CALL    L01D1
0AB3: DD 77 1C                          LD      (IX+1Ch),A
0AB6: C3 BE 08                          JP      L08BE
                                
                                        ; Referenced from 096F
0AB9: DD 21 80 1B               L0AB9:  LD      IX,1B80h
0ABD: 11 20 00                          LD      DE,0020h
0AC0: 06 10                             LD      B,10h
                                
                                        ; Referenced from 0AD1
0AC2: DD 36 06 00               L0AC2:  LD      (IX+06h),00h
0AC6: DD 36 0B 00                       LD      (IX+0Bh),00h
0ACA: DD 36 0C 00                       LD      (IX+0Ch),00h
0ACE: DD 19                             ADD     IX,DE
0AD0: 05                                DEC     B
0AD1: 20 EF                             JR      NZ,L0AC2
0AD3: CD D2 0C                          CALL    L0CD2
0AD6: C3 BE 08                          JP      L08BE
                                
                                        ; Referenced from 0974
0AD9: CD D1 01                  L0AD9:  CALL    L01D1
0ADC: 4F                                LD      C,A
0ADD: CD D1 01                          CALL    L01D1
0AE0: 67                                LD      H,A
0AE1: CD D1 01                          CALL    L01D1
0AE4: 6F                                LD      L,A
0AE5: DD 21 80 1B                       LD      IX,1B80h
0AE9: 11 20 00                          LD      DE,0020h
0AEC: 06 10                             LD      B,10h
                                
                                        ; Referenced from 0B14
0AEE: DD CB 06 46               L0AEE:  BIT     0,(IX+06h)
0AF2: 28 1A                             JR      Z,L0B0E
0AF4: DD 7E 0E                          LD      A,(IX+0Eh)
0AF7: B9                                CP      C
0AF8: 20 14                             JR      NZ,L0B0E
0AFA: DD 7E 0F                          LD      A,(IX+0Fh)
0AFD: BC                                CP      H
0AFE: 20 0E                             JR      NZ,L0B0E
0B00: CB 45                             BIT     0,L
0B02: 20 06                             JR      NZ,L0B0A
0B04: DD CB 06 8E                       RES     1,(IX+06h)
0B08: 18 04                             JR      L0B0E
                                
                                        ; Referenced from 0B02
0B0A: DD CB 06 CE               L0B0A:  SET     1,(IX+06h)
                                
                                        ; Referenced from 0AF2, 0AF8, 0AFE, 0B08
0B0E: 05                        L0B0E:  DEC     B
0B0F: CA BE 08                          JP      Z,L08BE
0B12: DD 19                             ADD     IX,DE
0B14: 18 D8                             JR      L0AEE
                                
                                        ; Referenced from 0979
0B16: CD D1 01                  L0B16:  CALL    L01D1
0B19: CD 30 11                          CALL    L1130
0B1C: CD D1 01                          CALL    L01D1
0B1F: 47                                LD      B,A
0B20: 7E                                LD      A,(HL)
0B21: FE 01                             CP      01h
0B23: C2 BE 08                          JP      NZ,L08BE
0B26: 23                                INC     HL
0B27: 70                                LD      (HL),B
0B28: C3 BE 08                          JP      L08BE
                                
                                        ; Referenced from 097E
0B2B: CD D1 01                  L0B2B:  CALL    L01D1
0B2E: 16 00                             LD      D,00h
0B30: 5F                                LD      E,A
0B31: 21 22 1B                          LD      HL,1B22h
0B34: 19                                ADD     HL,DE
0B35: CD D1 01                          CALL    L01D1
0B38: 77                                LD      (HL),A
0B39: C3 BE 08                          JP      L08BE
                                
                                        ; Referenced from 0983
0B3C: CD 6C 08                  L0B3C:  CALL    L086C
0B3F: DD CB 06 EE                       SET     5,(IX+06h)
0B43: C3 BE 08                          JP      L08BE
                                
                                        ; Referenced from 0988
0B46: CD 6C 08                  L0B46:  CALL    L086C
0B49: DD CB 06 AE                       RES     5,(IX+06h)
0B4D: C3 BE 08                          JP      L08BE
                                
                                        ; Referenced from 07C4, 0A90
                                        ; --- START PROC L0B50 ---
0B50: DD 21 80 1B               L0B50:  LD      IX,1B80h
0B54: 06 10                             LD      B,10h
0B56: 11 20 00                          LD      DE,0020h
                                
                                        ; Referenced from 0B6D
0B59: DD CB 06 6E               L0B59:  BIT     5,(IX+06h)
0B5D: 20 0A                             JR      NZ,L0B69
0B5F: DD CB 06 46                       BIT     0,(IX+06h)
0B63: 28 04                             JR      Z,L0B69
0B65: DD CB 06 E6                       SET     4,(IX+06h)
                                
                                        ; Referenced from 0B5D, 0B63
0B69: 05                        L0B69:  DEC     B
0B6A: C8                                RET     Z
0B6B: DD 19                             ADD     IX,DE
0B6D: 18 EA                             JR      L0B59
                                
                                        ; Referenced from 0992
                                        ; --- START PROC L0B6F ---
0B6F: CD 6C 08                  L0B6F:  CALL    L086C
0B72: CD D1 01                          CALL    L01D1
0B75: DD 77 1E                          LD      (IX+1Eh),A
0B78: C3 BE 08                          JP      L08BE
                                
                                        ; Referenced from 0997
                                        ; --- START PROC L0B7B ---
0B7B: CD D1 01                  L0B7B:  CALL    L01D1
0B7E: 32 AE 15                          LD      (L15AE),A
0B81: C3 BE 08                          JP      L08BE
                                
                                        ; Referenced from 0BD1, 0BE6, 0C6A
0B84: 00                        L0B84:  NOP
0B85: 00                                NOP
0B86: 00                                NOP
0B87: 00                                NOP
0B88: 00                                NOP
0B89: 00                                NOP
0B8A: 00                                NOP
0B8B: 00                                NOP
0B8C: 00                                NOP
0B8D: 00                                NOP
0B8E: 00                                NOP
0B8F: 00                                NOP
0B90: 00                                NOP
0B91: 00                                NOP
0B92: 00                                NOP
0B93: 00                                NOP
0B94: 00                                NOP
0B95: 00                                NOP
0B96: 00                                NOP
0B97: 00                                NOP
0B98: 00                                NOP
0B99: 00                                NOP
0B9A: 00                                NOP
0B9B: 00                                NOP
0B9C: 00                                NOP
0B9D: 00                                NOP
0B9E: 00                                NOP
0B9F: 00                                NOP
0BA0: 00                                NOP
0BA1: 00                                NOP
0BA2: 00                                NOP
0BA3: 00                                NOP
0BA4: 00                                NOP
0BA5: 00                                NOP
0BA6: 00                                NOP
0BA7: 00                                NOP
0BA8: 00                                NOP
0BA9: 00                                NOP
0BAA: 00                                NOP
0BAB: 00                                NOP
0BAC: 00                                NOP
0BAD: 00                                NOP
0BAE: 00                                NOP
0BAF: 00                                NOP
0BB0: 00                                NOP
0BB1: 00                                NOP
0BB2: 00                                NOP
0BB3: 00                                NOP
0BB4: 00                                NOP
                                
                                        ; Referenced from 0BB8, 0C34
0BB5: 00                        L0BB5:  NOP
                                
                                        ; Referenced from 06A9, 0A4E
                                        ; --- START PROC L0BB6 ---
0BB6: 16 00                     L0BB6:  LD      D,00h
0BB8: 32 B5 0B                          LD      (L0BB5),A
0BBB: 5F                                LD      E,A
0BBC: CB 23                             SLA     E
0BBE: CB 12                             RL      D
0BC0: 2A 72 0A                          LD      HL,(L0A72)
0BC3: 3A 74 0A                          LD      A,(L0A74)
0BC6: 19                                ADD     HL,DE
0BC7: CE 00                             ADC     A,00h
0BC9: 0E 02                             LD      C,02h
0BCB: 11 84 0B                          LD      DE,0B84h
0BCE: CD F9 01                          CALL    L01F9
0BD1: ED 5B 84 0B                       LD      DE,(L0B84)
0BD5: 2A 72 0A                          LD      HL,(L0A72)
0BD8: 3A 74 0A                          LD      A,(L0A74)
0BDB: 19                                ADD     HL,DE
0BDC: CE 00                             ADC     A,00h
0BDE: 0E 31                             LD      C,31h           ; '1'
0BE0: 11 84 0B                          LD      DE,0B84h
0BE3: CD F9 01                          CALL    L01F9
0BE6: 3A 84 0B                          LD      A,(L0B84)
0BE9: B7                                OR      A
0BEA: C8                                RET     Z
0BEB: DD 21 80 1B                       LD      IX,1B80h
0BEF: FD 21 55 0F                       LD      IY,0F55h
0BF3: 11 20 00                          LD      DE,0020h
0BF6: 0E 00                             LD      C,00h
0BF8: 21 85 0B                          LD      HL,0B85h
0BFB: 06 10                             LD      B,10h
                                
                                        ; Referenced from 0C75
0BFD: DD 7E 06                  L0BFD:  LD      A,(IX+06h)
0C00: E6 21                             AND     21h             ; '!'
0C02: 20 6B                             JR      NZ,L0C6F
0C04: DD 36 06 11                       LD      (IX+06h),11h
0C08: 3A 72 0A                          LD      A,(L0A72)
0C0B: 86                                ADD     A,(HL)
0C0C: 23                                INC     HL
0C0D: DD 77 03                          LD      (IX+03h),A
0C10: 3A 73 0A                          LD      A,(L0A73)
0C13: 8E                                ADC     A,(HL)
0C14: 23                                INC     HL
0C15: DD 77 04                          LD      (IX+04h),A
0C18: 3A 74 0A                          LD      A,(L0A74)
0C1B: 8E                                ADC     A,(HL)
0C1C: 23                                INC     HL
0C1D: DD 77 05                          LD      (IX+05h),A
0C20: DD 36 00 FF                       LD      (IX+00h),0FFh
0C24: DD 36 01 FF                       LD      (IX+01h),0FFh
0C28: DD 36 02 FF                       LD      (IX+02h),0FFh
0C2C: DD 36 07 FF                       LD      (IX+07h),0FFh
0C30: DD 36 08 FF                       LD      (IX+08h),0FFh
0C34: 3A B5 0B                          LD      A,(L0BB5)
0C37: DD 77 0E                          LD      (IX+0Eh),A
0C3A: DD 71 0F                          LD      (IX+0Fh),C
0C3D: DD 36 10 00                       LD      (IX+10h),00h
0C41: DD 36 13 00                       LD      (IX+13h),00h
0C45: DD 36 16 00                       LD      (IX+16h),00h
0C49: DD 36 19 00                       LD      (IX+19h),00h
0C4D: DD 36 1D 00                       LD      (IX+1Dh),00h
0C51: DD 36 1C 00                       LD      (IX+1Ch),00h
0C55: DD 36 1E 00                       LD      (IX+1Eh),00h
0C59: FD 36 20 00                       LD      (IY+20h),00h
0C5D: FD 36 30 00                       LD      (IY+30h),00h
0C61: FD 36 00 00                       LD      (IY+00h),00h
0C65: FD 36 10 00                       LD      (IY+10h),00h
0C69: 0C                                INC     C
0C6A: 3A 84 0B                          LD      A,(L0B84)
0C6D: B9                                CP      C
0C6E: C8                                RET     Z
                                
                                        ; Referenced from 0C02
0C6F: 05                        L0C6F:  DEC     B
0C70: C8                                RET     Z
0C71: DD 19                             ADD     IX,DE
0C73: FD 23                             INC     IY
0C75: 18 86                             JR      L0BFD
                                
                                        ; Referenced from 07A6, 0A57
                                        ; --- START PROC L0C77 ---
0C77: DD 21 80 1B               L0C77:  LD      IX,1B80h
0C7B: 11 20 00                          LD      DE,0020h
0C7E: 06 10                             LD      B,10h
                                
                                        ; Referenced from 0CA4
0C80: DD CB 06 46               L0C80:  BIT     0,(IX+06h)
0C84: 28 1B                             JR      Z,L0CA1
0C86: DD CB 06 6E                       BIT     5,(IX+06h)
0C8A: 20 15                             JR      NZ,L0CA1
0C8C: FE FF                             CP      0FFh
0C8E: 28 05                             JR      Z,L0C95
0C90: DD BE 0E                          CP      (IX+0Eh)
0C93: 20 0C                             JR      NZ,L0CA1
                                
                                        ; Referenced from 0C8E
0C95: DD 36 06 00               L0C95:  LD      (IX+06h),00h
0C99: DD 36 0B 00                       LD      (IX+0Bh),00h
0C9D: DD 36 0C 00                       LD      (IX+0Ch),00h
                                
                                        ; Referenced from 0C84, 0C8A, 0C93
0CA1: DD 19                     L0CA1:  ADD     IX,DE
0CA3: 05                                DEC     B
0CA4: 20 DA                             JR      NZ,L0C80
0CA6: CD D2 0C                          CALL    L0CD2
0CA9: C9                                RET
                                
                                        ; Referenced from 07B3
                                        ; --- START PROC L0CAA ---
0CAA: DD 21 80 1B               L0CAA:  LD      IX,1B80h
0CAE: 11 20 00                          LD      DE,0020h
0CB1: 06 10                             LD      B,10h
                                
                                        ; Referenced from 0CCB
0CB3: DD CB 06 46               L0CB3:  BIT     0,(IX+06h)
0CB7: 28 0F                             JR      Z,L0CC8
0CB9: DD CB 06 6E                       BIT     5,(IX+06h)
0CBD: 20 09                             JR      NZ,L0CC8
0CBF: DD BE 0E                          CP      (IX+0Eh)
0CC2: 20 04                             JR      NZ,L0CC8
0CC4: DD CB 06 A6                       RES     4,(IX+06h)
                                
                                        ; Referenced from 0CB7, 0CBD, 0CC2
0CC8: DD 19                     L0CC8:  ADD     IX,DE
0CCA: 05                                DEC     B
0CCB: 20 E6                             JR      NZ,L0CB3
0CCD: CD D2 0C                          CALL    L0CD2
0CD0: C9                                RET
                                
                                        ; Referenced from 0D52, 0DC8
0CD1: 00                        L0CD1:  NOP
                                
                                        ; Referenced from 0A8A, 0AD3, 0CA6, 0CCD
                                        ; --- START PROC L0CD2 ---
0CD2: DD 21 72 17               L0CD2:  LD      IX,1772h
0CD6: 1E 00                             LD      E,00h
0CD8: CD 1B 0D                          CALL    L0D1B
0CDB: DD 21 9D 17                       LD      IX,179Dh
0CDF: 1E 01                             LD      E,01h
0CE1: CD 1B 0D                          CALL    L0D1B
0CE4: DD 21 B3 17                       LD      IX,17B3h
0CE8: 1E 01                             LD      E,01h
0CEA: CD 1B 0D                          CALL    L0D1B
0CED: FD 21 89 0E                       LD      IY,0E89h
                                
                                        ; Referenced from 0CFB, 0D12, 0D19
0CF1: FD 23                     L0CF1:  INC     IY
0CF3: FD 7E 00                          LD      A,(IY+00h)
0CF6: CB 7F                             BIT     7,A
0CF8: C0                                RET     NZ
0CF9: CB 77                             BIT     6,A
0CFB: 20 F4                             JR      NZ,L0CF1
0CFD: 06 00                             LD      B,00h
0CFF: CB 27                             SLA     A
0D01: CB 27                             SLA     A
0D03: CB 27                             SLA     A
0D05: CB 27                             SLA     A
0D07: CB 27                             SLA     A
0D09: 4F                                LD      C,A
0D0A: CB 10                             RL      B
0D0C: 21 86 1B                          LD      HL,1B86h
0D0F: 09                                ADD     HL,BC
0D10: CB 66                             BIT     4,(HL)
0D12: C2 F1 0C                          JP      NZ,L0CF1
0D15: FD CB 00 F6                       SET     6,(IY+00h)
0D19: 18 D6                             JR      L0CF1
                                
                                        ; Referenced from 0CD8, 0CE1, 0CEA, 0DE2
                                        ; --- START PROC L0D1B ---
0D1B: DD 7E 00                  L0D1B:  LD      A,(IX+00h)
0D1E: FE FF                             CP      0FFh
0D20: C8                                RET     Z
0D21: 57                                LD      D,A
0D22: 06 00                             LD      B,00h
0D24: DD 4E 03                          LD      C,(IX+03h)
0D27: CB 21                             SLA     C
0D29: CB 21                             SLA     C
0D2B: CB 21                             SLA     C
0D2D: CB 21                             SLA     C
0D2F: CB 21                             SLA     C
0D31: CB 10                             RL      B
0D33: 21 86 1B                          LD      HL,1B86h
0D36: 09                                ADD     HL,BC
0D37: CB 66                             BIT     4,(HL)
0D39: C2 DD 0D                          JP      NZ,L0DDD
0D3C: 7A                                LD      A,D
0D3D: E6 07                             AND     07h
0D3F: F6 80                             OR      80h
0D41: DD 77 00                          LD      (IX+00h),A
0D44: DD 36 04 00                       LD      (IX+04h),00h
0D48: DD 36 05 00                       LD      (IX+05h),00h
0D4C: DD 36 06 00                       LD      (IX+06h),00h
0D50: E6 07                             AND     07h
0D52: 32 D1 0C                          LD      (L0CD1),A
0D55: CB 43                             BIT     0,E
0D57: C2 E5 0D                          JP      NZ,L0DE5
0D5A: CB 6A                             BIT     5,D
0D5C: 28 13                             JR      Z,L0D71
0D5E: 3E C9                             LD      A,0C9h
0D60: 32 B7 02                          LD      (L02B7),A
0D63: 32 02 03                          LD      (L0302),A
0D66: 21 00 40                          LD      HL,4000h
0D69: 36 2B                             LD      (HL),2Bh        ; '+'
0D6B: 23                                INC     HL
0D6C: 36 00                             LD      (HL),00h
0D6E: C3 DD 0D                          JP      L0DDD
                                
                                        ; Referenced from 0D5C
0D71: 16 00                     L0D71:  LD      D,00h
0D73: FE 03                             CP      03h
0D75: 38 04                             JR      C,L0D7B
0D77: D6 04                             SUB     04h
0D79: 16 02                             LD      D,02h
                                
                                        ; Referenced from 0D75
0D7B: D5                        L0D7B:  PUSH    DE
0D7C: 5F                                LD      E,A
0D7D: 26 40                             LD      H,40h           ; '@'
0D7F: 2E 00                             LD      L,00h
0D81: 3E 40                             LD      A,40h           ; '@'
0D83: 83                                ADD     A,E
0D84: 47                                LD      B,A
0D85: 0E 7F                             LD      C,7Fh           ; ''
0D87: 3E 80                             LD      A,80h
                                
                                        ; Referenced from 0D8A
0D89: A6                        L0D89:  AND     (HL)
0D8A: FA 89 0D                          JP      M,L0D89
0D8D: 6A                                LD      L,D
0D8E: 70                                LD      (HL),B
0D8F: 2C                                INC     L
0D90: 71                                LD      (HL),C
0D91: 2E 00                             LD      L,00h
0D93: 3E 44                             LD      A,44h           ; 'D'
0D95: 83                                ADD     A,E
0D96: 47                                LD      B,A
0D97: 0E 7F                             LD      C,7Fh           ; ''
0D99: 3E 80                             LD      A,80h
                                
                                        ; Referenced from 0D9C
0D9B: A6                        L0D9B:  AND     (HL)
0D9C: FA 9B 0D                          JP      M,L0D9B
0D9F: 6A                                LD      L,D
0DA0: 70                                LD      (HL),B
0DA1: 2C                                INC     L
0DA2: 71                                LD      (HL),C
0DA3: 2E 00                             LD      L,00h
0DA5: 3E 48                             LD      A,48h           ; 'H'
0DA7: 83                                ADD     A,E
0DA8: 47                                LD      B,A
0DA9: 0E 7F                             LD      C,7Fh           ; ''
0DAB: 3E 80                             LD      A,80h
                                
                                        ; Referenced from 0DAE
0DAD: A6                        L0DAD:  AND     (HL)
0DAE: FA AD 0D                          JP      M,L0DAD
0DB1: 6A                                LD      L,D
0DB2: 70                                LD      (HL),B
0DB3: 2C                                INC     L
0DB4: 71                                LD      (HL),C
0DB5: 2E 00                             LD      L,00h
0DB7: 3E 4C                             LD      A,4Ch           ; 'L'
0DB9: 83                                ADD     A,E
0DBA: 47                                LD      B,A
0DBB: 0E 7F                             LD      C,7Fh           ; ''
0DBD: 3E 80                             LD      A,80h
                                
                                        ; Referenced from 0DC0
0DBF: A6                        L0DBF:  AND     (HL)
0DC0: FA BF 0D                          JP      M,L0DBF
0DC3: 6A                                LD      L,D
0DC4: 70                                LD      (HL),B
0DC5: 2C                                INC     L
0DC6: 71                                LD      (HL),C
0DC7: D1                                POP     DE
0DC8: 3A D1 0C                          LD      A,(L0CD1)
0DCB: FD 21 00 40                       LD      IY,4000h
0DCF: 7F                                LD      A,A
                                
                                        ; Referenced from 0DD4
0DD0: FD CB 00 7E               L0DD0:  BIT     7,(IY+00h)
0DD4: 20 FA                             JR      NZ,L0DD0
0DD6: FD 36 00 28                       LD      (IY+00h),28h    ; '('
0DDA: FD 77 01                          LD      (IY+01h),A
                                
                                        ; Referenced from 0D39, 0D6E, 0DF2
0DDD: 01 07 00                  L0DDD:  LD      BC,0007h
0DE0: DD 09                             ADD     IX,BC
0DE2: C3 1B 0D                          JP      L0D1B
                                
                                        ; Referenced from 0D57
0DE5: FD 21 09 00               L0DE5:  LD      IY,0009h
0DE9: 4F                                LD      C,A
0DEA: 06 00                             LD      B,00h
0DEC: FD 09                             ADD     IY,BC
0DEE: FD 36 00 04                       LD      (IY+00h),04h
0DF2: 18 E9                             JR      L0DDD
                                
                                        ; Referenced from 0657, 0A15
                                        ; --- START PROC L0DF4 ---
0DF4: 11 DA 00                  L0DF4:  LD      DE,00DAh
0DF7: CD 38 11                          CALL    L1138
0DFA: AF                                XOR     A
0DFB: CB 25                             SLA     L
0DFD: CB 14                             RL      H
0DFF: 17                                RLA
0E00: 6C                                LD      L,H
0E01: 67                                LD      H,A
0E02: 22 85 08                          LD      (L0885),HL
0E05: C9                                RET
                                
                                        ; Referenced from 059B, 0A2E, 1673
                                        ; --- START PROC L0E06 ---
0E06: DD 46 06                  L0E06:  LD      B,(IX+06h)
0E09: 16 00                             LD      D,00h
0E0B: FD 21 55 0F                       LD      IY,0F55h
0E0F: FD 19                             ADD     IY,DE
0E11: DD 21 8A 0E                       LD      IX,0E8Ah
                                
                                        ; Referenced from 0E27
0E15: DD 7E 00                  L0E15:  LD      A,(IX+00h)
0E18: CB 7F                             BIT     7,A
0E1A: 20 0D                             JR      NZ,L0E29
0E1C: CB 77                             BIT     6,A
0E1E: 20 05                             JR      NZ,L0E25
0E20: E6 0F                             AND     0Fh
0E22: BB                                CP      E
0E23: 28 16                             JR      Z,L0E3B
                                
                                        ; Referenced from 0E1E
0E25: DD 23                     L0E25:  INC     IX
0E27: 18 EC                             JR      L0E15
                                
                                        ; Referenced from 0E1A
0E29: DD 21 8A 0E               L0E29:  LD      IX,0E8Ah
                                
                                        ; Referenced from 0E39
0E2D: DD 7E 00                  L0E2D:  LD      A,(IX+00h)
0E30: CB 7F                             BIT     7,A
0E32: C0                                RET     NZ
0E33: CB 77                             BIT     6,A
0E35: 20 04                             JR      NZ,L0E3B
0E37: DD 23                             INC     IX
0E39: 18 F2                             JR      L0E2D
                                
                                        ; Referenced from 0E23, 0E35
0E3B: CB 58                     L0E3B:  BIT     3,B
0E3D: 28 02                             JR      Z,L0E41
0E3F: CB EB                             SET     5,E
                                
                                        ; Referenced from 0E3D
0E41: DD 73 00                  L0E41:  LD      (IX+00h),E
0E44: DD 36 0D 00                       LD      (IX+0Dh),00h
0E48: 06 00                             LD      B,00h
0E4A: CB 21                             SLA     C
0E4C: 2A 6F 0A                          LD      HL,(L0A6F)
0E4F: 3A 71 0A                          LD      A,(L0A71)
0E52: 09                                ADD     HL,BC
0E53: CE 00                             ADC     A,00h
0E55: 0E 02                             LD      C,02h
0E57: 11 05 17                          LD      DE,1705h
0E5A: CD F9 01                          CALL    L01F9
0E5D: ED 5B 05 17                       LD      DE,(L1705)
0E61: 2A 6F 0A                          LD      HL,(L0A6F)
0E64: 3A 71 0A                          LD      A,(L0A71)
0E67: 19                                ADD     HL,DE
0E68: CE 00                             ADC     A,00h
0E6A: 0E 20                             LD      C,20h           ; ' '
0E6C: 16 1E                             LD      D,1Eh
0E6E: DD 5E 19                          LD      E,(IX+19h)
0E71: CD F9 01                          CALL    L01F9
0E74: 16 1E                             LD      D,1Eh
0E76: DD 5E 19                          LD      E,(IX+19h)
0E79: 1A                                LD      A,(DE)
0E7A: FD 77 20                          LD      (IY+20h),A
0E7D: 13                                INC     DE
0E7E: 1A                                LD      A,(DE)
0E7F: FD 77 30                          LD      (IY+30h),A
0E82: 13                                INC     DE
0E83: DD 73 05                          LD      (IX+05h),E
0E86: DD 72 09                          LD      (IX+09h),D
0E89: C9                                RET
                                
0E8A: 40                        L0E8A:  LD      B,B
0E8B: 40                                LD      B,B
0E8C: 40                                LD      B,B
0E8D: 40                                LD      B,B
0E8E: FF                                RST     0x38
                                
0E8F: 00                        L0E8F:  NOP
0E90: 00                                NOP
0E91: 00                                NOP
0E92: 00                                NOP
0E93: 00                                NOP
0E94: 00                                NOP
0E95: 00                                NOP
0E96: 00                                NOP
0E97: 00                                NOP
0E98: 00                                NOP
0E99: 00                                NOP
0E9A: 00                                NOP
0E9B: 00                                NOP
0E9C: 00                                NOP
0E9D: 00                                NOP
0E9E: 00                                NOP
0E9F: 00                                NOP
0EA0: 00                                NOP
0EA1: 00                                NOP
0EA2: 00                                NOP
0EA3: 80                                ADD     A,B
0EA4: A0                                AND     B
0EA5: C0                                RET     NZ
0EA6: E0                                RET     PO
                                
                                        ; Referenced from 08F7
                                        ; --- START PROC L0EA7 ---
0EA7: DD 21 8A 0E               L0EA7:  LD      IX,0E8Ah
                                
                                        ; Referenced from 0EBA
0EAB: CD B7 02                  L0EAB:  CALL    L02B7
0EAE: DD 4E 00                          LD      C,(IX+00h)
0EB1: CB 79                             BIT     7,C
0EB3: C0                                RET     NZ
0EB4: CB 71                             BIT     6,C
0EB6: 28 04                             JR      Z,L0EBC
                                
                                        ; Referenced from 0EC7, 0ECB, 0F1B
0EB8: DD 23                     L0EB8:  INC     IX
0EBA: 18 EF                             JR      L0EAB
                                
                                        ; Referenced from 0EB6
0EBC: 3A 89 08                  L0EBC:  LD      A,(L0889)
0EBF: CB 69                             BIT     5,C
0EC1: 20 06                             JR      NZ,L0EC9
0EC3: CB 4F                             BIT     1,A
0EC5: 20 06                             JR      NZ,L0ECD
0EC7: 18 EF                             JR      L0EB8
                                
                                        ; Referenced from 0EC1
0EC9: CB 47                     L0EC9:  BIT     0,A
0ECB: 28 EB                             JR      Z,L0EB8
                                
                                        ; Referenced from 0EC5
0ECD: DD 7E 0D                  L0ECD:  LD      A,(IX+0Dh)
0ED0: D6 01                             SUB     01h
0ED2: 30 1F                             JR      NC,L0EF3
0ED4: DD 6E 05                          LD      L,(IX+05h)
0ED7: DD 66 09                          LD      H,(IX+09h)
0EDA: 7E                                LD      A,(HL)
0EDB: D6 01                             SUB     01h
0EDD: 38 3E                             JR      C,L0F1D
0EDF: 23                                INC     HL
0EE0: 46                                LD      B,(HL)
0EE1: DD 70 11                          LD      (IX+11h),B
0EE4: 23                                INC     HL
0EE5: 46                                LD      B,(HL)
0EE6: DD 70 15                          LD      (IX+15h),B
0EE9: 23                                INC     HL
0EEA: CD B7 02                          CALL    L02B7
0EED: DD 75 05                          LD      (IX+05h),L
0EF0: DD 74 09                          LD      (IX+09h),H
                                
                                        ; Referenced from 0ED2
0EF3: FD 21 55 0F               L0EF3:  LD      IY,0F55h
0EF7: 06 00                             LD      B,00h
0EF9: CB A9                             RES     5,C
0EFB: FD 09                             ADD     IY,BC
0EFD: DD 77 0D                          LD      (IX+0Dh),A
0F00: FD 7E 20                          LD      A,(IY+20h)
0F03: DD 86 11                          ADD     A,(IX+11h)
0F06: FD 77 20                          LD      (IY+20h),A
0F09: FD 7E 30                          LD      A,(IY+30h)
0F0C: DD 8E 15                          ADC     A,(IX+15h)
0F0F: FD 77 30                          LD      (IY+30h),A
                                
                                        ; Referenced from 0F33
0F12: FD CB 40 C6               L0F12:  SET     0,(IY+40h)
0F16: 3E 01                             LD      A,01h
0F18: 32 54 0F                          LD      (L0F54),A
0F1B: 18 9B                             JR      L0EB8
                                
                                        ; Referenced from 0EDD
0F1D: FD 21 55 0F               L0F1D:  LD      IY,0F55h
0F21: 06 00                             LD      B,00h
0F23: CB A9                             RES     5,C
0F25: FD 09                             ADD     IY,BC
0F27: FD 36 20 00                       LD      (IY+20h),00h
0F2B: FD 36 30 00                       LD      (IY+30h),00h
0F2F: DD 36 00 40                       LD      (IX+00h),40h    ; '@'
0F33: 18 DD                             JR      L0F12
                                
                                        ; Referenced from 09D1, 09FD
                                        ; --- START PROC L0F35 ---
0F35: 4F                        L0F35:  LD      C,A
0F36: 06 00                             LD      B,00h
0F38: DD 21 55 0F                       LD      IX,0F55h
0F3C: DD 09                             ADD     IX,BC
0F3E: CD D1 01                          CALL    L01D1
0F41: DD 77 00                          LD      (IX+00h),A
0F44: CD D1 01                          CALL    L01D1
0F47: DD 77 10                          LD      (IX+10h),A
0F4A: DD CB 40 C6                       SET     0,(IX+40h)
0F4E: 3E 01                             LD      A,01h
0F50: 32 54 0F                          LD      (L0F54),A
0F53: C9                                RET
                                
                                        ; Referenced from 06CD, 0F18, 0F50, 0FA5, 0FAB
0F54: 00                        L0F54:  NOP
0F55: 00                                NOP
0F56: 00                                NOP
0F57: 00                                NOP
0F58: 00                                NOP
0F59: 00                                NOP
0F5A: 00                                NOP
0F5B: 00                                NOP
0F5C: 00                                NOP
0F5D: 00                                NOP
0F5E: 00                                NOP
0F5F: 00                                NOP
0F60: 00                                NOP
0F61: 00                                NOP
0F62: 00                                NOP
0F63: 00                                NOP
0F64: 00                                NOP
0F65: 00                                NOP
0F66: 00                                NOP
0F67: 00                                NOP
0F68: 00                                NOP
0F69: 00                                NOP
0F6A: 00                                NOP
0F6B: 00                                NOP
0F6C: 00                                NOP
0F6D: 00                                NOP
0F6E: 00                                NOP
0F6F: 00                                NOP
0F70: 00                                NOP
0F71: 00                                NOP
0F72: 00                                NOP
0F73: 00                                NOP
0F74: 00                                NOP
0F75: 00                                NOP
0F76: 00                                NOP
0F77: 00                                NOP
0F78: 00                                NOP
0F79: 00                                NOP
0F7A: 00                                NOP
0F7B: 00                                NOP
0F7C: 00                                NOP
0F7D: 00                                NOP
0F7E: 00                                NOP
0F7F: 00                                NOP
0F80: 00                                NOP
0F81: 00                                NOP
0F82: 00                                NOP
0F83: 00                                NOP
0F84: 00                                NOP
0F85: 00                                NOP
0F86: 00                                NOP
0F87: 00                                NOP
0F88: 00                                NOP
0F89: 00                                NOP
0F8A: 00                                NOP
0F8B: 00                                NOP
0F8C: 00                                NOP
0F8D: 00                                NOP
0F8E: 00                                NOP
0F8F: 00                                NOP
0F90: 00                                NOP
0F91: 00                                NOP
0F92: 00                                NOP
0F93: 00                                NOP
0F94: 00                                NOP
0F95: 00                                NOP
0F96: 00                                NOP
0F97: 00                                NOP
0F98: 00                                NOP
0F99: 00                                NOP
0F9A: 00                                NOP
0F9B: 00                                NOP
0F9C: 00                                NOP
0F9D: 00                                NOP
0F9E: 00                                NOP
0F9F: 00                                NOP
0FA0: 00                                NOP
0FA1: 00                                NOP
0FA2: 00                                NOP
0FA3: 00                                NOP
0FA4: 00                                NOP
                                
                                        ; Referenced from 0909
                                        ; --- START PROC L0FA5 ---
0FA5: 3A 54 0F                  L0FA5:  LD      A,(L0F54)
0FA8: B7                                OR      A
0FA9: C8                                RET     Z
0FAA: AF                                XOR     A
0FAB: 32 54 0F                          LD      (L0F54),A
0FAE: CD 41 00                          CALL    L0041
0FB1: FD 21 72 17                       LD      IY,1772h
                                
                                        ; Referenced from 1020
0FB5: CD B7 02                  L0FB5:  CALL    L02B7
0FB8: FD 7E 00                          LD      A,(IY+00h)
0FBB: FE FF                             CP      0FFh
0FBD: 28 63                             JR      Z,L1022
0FBF: E6 07                             AND     07h
0FC1: 47                                LD      B,A
0FC2: FD 4E 02                          LD      C,(IY+02h)
0FC5: FD 5E 03                          LD      E,(IY+03h)
0FC8: 3E 00                             LD      A,00h
0FCA: DD 21 55 0F                       LD      IX,0F55h
0FCE: 16 00                             LD      D,00h
0FD0: DD 19                             ADD     IX,DE
0FD2: DD CB 40 46                       BIT     0,(IX+40h)
0FD6: 28 43                             JR      Z,L101B
0FD8: CD 87 10                          CALL    L1087
0FDB: ED 53 0C 14                       LD      (L140C),DE
0FDF: 16 00                             LD      D,00h
0FE1: 78                                LD      A,B
0FE2: FE 03                             CP      03h
0FE4: 38 04                             JR      C,L0FEA
0FE6: D6 04                             SUB     04h
0FE8: 16 02                             LD      D,02h
                                
                                        ; Referenced from 0FE4
0FEA: 5F                        L0FEA:  LD      E,A
0FEB: 26 40                             LD      H,40h           ; '@'
0FED: FD E5                             PUSH    IY
0FEF: FD 21 0C 14                       LD      IY,140Ch
0FF3: 2E 00                             LD      L,00h
0FF5: 3E A4                             LD      A,0A4h
0FF7: 83                                ADD     A,E
0FF8: 47                                LD      B,A
0FF9: FD 4E 01                          LD      C,(IY+01h)
0FFC: 3E 80                             LD      A,80h
                                
                                        ; Referenced from 0FFF
0FFE: A6                        L0FFE:  AND     (HL)
0FFF: FA FE 0F                          JP      M,L0FFE
1002: 6A                                LD      L,D
1003: 70                                LD      (HL),B
1004: 2C                                INC     L
1005: 71                                LD      (HL),C
1006: 2E 00                             LD      L,00h
1008: 3E A0                             LD      A,0A0h
100A: 83                                ADD     A,E
100B: 47                                LD      B,A
100C: FD 4E 00                          LD      C,(IY+00h)
100F: 3E 80                             LD      A,80h
                                
                                        ; Referenced from 1012
1011: A6                        L1011:  AND     (HL)
1012: FA 11 10                          JP      M,L1011
1015: 6A                                LD      L,D
1016: 70                                LD      (HL),B
1017: 2C                                INC     L
1018: 71                                LD      (HL),C
1019: FD E1                             POP     IY
                                
                                        ; Referenced from 0FD6
101B: 11 07 00                  L101B:  LD      DE,0007h
101E: FD 19                             ADD     IY,DE
1020: 18 93                             JR      L0FB5
                                
                                        ; Referenced from 0FBD
1022: FD 21 9D 17               L1022:  LD      IY,179Dh
                                
                                        ; Referenced from 1077
1026: CD B7 02                  L1026:  CALL    L02B7
1029: FD 7E 00                          LD      A,(IY+00h)
102C: FE FF                             CP      0FFh
102E: 28 49                             JR      Z,L1079
1030: E6 07                             AND     07h
1032: 47                                LD      B,A
1033: FD 4E 02                          LD      C,(IY+02h)
1036: FD 5E 03                          LD      E,(IY+03h)
1039: 3E 01                             LD      A,01h
103B: DD 21 55 0F                       LD      IX,0F55h
103F: 16 00                             LD      D,00h
1041: DD 19                             ADD     IX,DE
1043: DD CB 40 46                       BIT     0,(IX+40h)
1047: 28 29                             JR      Z,L1072
1049: CD 87 10                          CALL    L1087
104C: CD B7 02                          CALL    L02B7
104F: CB 08                             RRC     B
1051: CB 08                             RRC     B
1053: CB 08                             RRC     B
1055: 7B                                LD      A,E
1056: E6 0F                             AND     0Fh
1058: F6 80                             OR      80h
105A: B0                                OR      B
105B: 32 11 7F                          LD      (7F11h),A
105E: CB 3A                             SRL     D
1060: CB 1B                             RR      E
1062: CB 3A                             SRL     D
1064: CB 1B                             RR      E
1066: CB 3A                             SRL     D
1068: CB 1B                             RR      E
106A: CB 3A                             SRL     D
106C: CB 1B                             RR      E
106E: 7B                                LD      A,E
106F: 32 11 7F                          LD      (7F11h),A
                                
                                        ; Referenced from 1047
1072: 11 07 00                  L1072:  LD      DE,0007h
1075: FD 19                             ADD     IY,DE
1077: 18 AD                             JR      L1026
                                
                                        ; Referenced from 102E
1079: 21 95 0F                  L1079:  LD      HL,0F95h
107C: 3E 10                             LD      A,10h
                                
                                        ; Referenced from 1082
107E: 36 00                     L107E:  LD      (HL),00h
1080: 23                                INC     HL
1081: 3D                                DEC     A
1082: 20 FA                             JR      NZ,L107E
1084: C9                                RET
                                
                                        ; Referenced from 109B, 10AE, 10B5, 10E7, 1105
1085: 00                        L1085:  NOP
1086: 00                                NOP
                                
                                        ; Referenced from 0FD8, 1049, 123A, 1458
                                        ; --- START PROC L1087 ---
1087: C5                        L1087:  PUSH    BC
1088: E5                                PUSH    HL
1089: CD B7 02                          CALL    L02B7
108C: 47                                LD      B,A
108D: DD 7E 00                          LD      A,(IX+00h)
1090: DD 86 20                          ADD     A,(IX+20h)
1093: 5F                                LD      E,A
1094: DD 7E 10                          LD      A,(IX+10h)
1097: DD 8E 30                          ADC     A,(IX+30h)
109A: 57                                LD      D,A
109B: ED 53 85 10                       LD      (L1085),DE
109F: CD B7 02                          CALL    L02B7
10A2: 79                                LD      A,C
10A3: 82                                ADD     A,D
10A4: FE 60                             CP      60h             ; '`'
10A6: 38 12                             JR      C,L10BA
10A8: CB 7A                             BIT     7,D
10AA: 28 07                             JR      Z,L10B3
10AC: 3E 00                             LD      A,00h
10AE: 32 85 10                          LD      (L1085),A
10B1: 18 07                             JR      L10BA
                                
                                        ; Referenced from 10AA
10B3: 3E FF                     L10B3:  LD      A,0FFh
10B5: 32 85 10                          LD      (L1085),A
10B8: 3E 5F                             LD      A,5Fh           ; '_'
                                
                                        ; Referenced from 10A6, 10B1
10BA: CD B7 02                  L10BA:  CALL    L02B7
10BD: CB 40                             BIT     0,B
10BF: 20 20                             JR      NZ,L10E1
10C1: 0E 00                             LD      C,00h
10C3: FE 30                             CP      30h             ; '0'
10C5: 38 04                             JR      C,L10CB
10C7: D6 30                             SUB     30h             ; '0'
10C9: CB D1                             SET     2,C
                                
                                        ; Referenced from 10C5
10CB: FE 18                     L10CB:  CP      18h
10CD: 38 04                             JR      C,L10D3
10CF: D6 18                             SUB     18h
10D1: CB C9                             SET     1,C
                                
                                        ; Referenced from 10CD
10D3: FE 0C                     L10D3:  CP      0Ch
10D5: 38 04                             JR      C,L10DB
10D7: D6 0C                             SUB     0Ch
10D9: CB C1                             SET     0,C
                                
                                        ; Referenced from 10D5
10DB: DD 21 47 11               L10DB:  LD      IX,1147h
10DF: 18 0D                             JR      L10EE
                                
                                        ; Referenced from 10BF
10E1: D6 21                     L10E1:  SUB     21h             ; '!'
10E3: 30 05                             JR      NC,L10EA
10E5: 3E 00                             LD      A,00h
10E7: 32 85 10                          LD      (L1085),A
                                
                                        ; Referenced from 10E3
10EA: DD 21 61 11               L10EA:  LD      IX,1161h
                                
                                        ; Referenced from 10DF
10EE: 07                        L10EE:  RLCA
10EF: 5F                                LD      E,A
10F0: 16 00                             LD      D,00h
10F2: DD 19                             ADD     IX,DE
10F4: CD B7 02                          CALL    L02B7
10F7: DD 7E 02                          LD      A,(IX+02h)
10FA: DD 96 00                          SUB     (IX+00h)
10FD: 5F                                LD      E,A
10FE: DD 7E 03                          LD      A,(IX+03h)
1101: DD 9E 01                          SBC     A,(IX+01h)
1104: 57                                LD      D,A
1105: 3A 85 10                          LD      A,(L1085)
1108: CD 38 11                          CALL    L1138
110B: CD B7 02                          CALL    L02B7
110E: 2E 00                             LD      L,00h
1110: CB 7C                             BIT     7,H
1112: 28 02                             JR      Z,L1116
1114: 2E FF                             LD      L,0FFh
                                
                                        ; Referenced from 1112
1116: DD 7E 00                  L1116:  LD      A,(IX+00h)
1119: 84                                ADD     A,H
111A: 5F                                LD      E,A
111B: DD 7E 01                          LD      A,(IX+01h)
111E: 8D                                ADC     A,L
111F: 57                                LD      D,A
1120: CB 40                             BIT     0,B
1122: 20 06                             JR      NZ,L112A
1124: 79                                LD      A,C
1125: 07                                RLCA
1126: 07                                RLCA
1127: 07                                RLCA
1128: B2                                OR      D
1129: 57                                LD      D,A
                                
                                        ; Referenced from 1122
112A: E1                        L112A:  POP     HL
112B: C1                                POP     BC
112C: CD B7 02                          CALL    L02B7
112F: C9                                RET
                                
                                        ; Referenced from 09A1, 0B19, 170A
                                        ; --- START PROC L1130 ---
1130: 21 67 18                  L1130:  LD      HL,1867h
1133: 11 27 00                          LD      DE,0027h
1136: 18 03                             JR      L113B
                                
                                        ; Referenced from 0DF7, 1108, 15E2
                                        ; --- START PROC L1138 ---
1138: 21 00 00                  L1138:  LD      HL,0000h
                                
                                        ; Referenced from 1136, 1145
                                        ; --- START PROC L113B ---
113B: CB 3F                     L113B:  SRL     A
113D: 30 01                             JR      NC,L1140
113F: 19                                ADD     HL,DE
                                
                                        ; Referenced from 113D
1140: C8                        L1140:  RET     Z
1141: CB 23                             SLA     E
1143: CB 12                             RL      D
1145: 18 F4                             JR      L113B
                                
1147: 84                        L1147:  ADD     A,H
1148: 02                                LD      (BC),A
1149: AA                                XOR     D
114A: 02                                LD      (BC),A
114B: D3 02                             OUT     (02h),A
114D: FE 02                             CP      02h
114F: 2B                                DEC     HL
1150: 03                                INC     BC
1151: 5B                                LD      E,E
1152: 03                                INC     BC
1153: 8E                                ADC     A,(HL)
1154: 03                                INC     BC
1155: C5                                PUSH    BC
1156: 03                                INC     BC
1157: FE 03                             CP      03h
1159: 3B                                DEC     SP
115A: 04                                INC     B
115B: 7B                                LD      A,E
115C: 04                                INC     B
115D: BF                                CP      A
115E: 04                                INC     B
115F: 08                                EX      AF,AF'
1160: 05                                DEC     B
1161: F9                                LD      SP,HL
1162: 03                                INC     BC
1163: C0                                RET     NZ
1164: 03                                INC     BC
1165: 8A                                ADC     A,D
1166: 03                                INC     BC
1167: 57                                LD      D,A
1168: 03                                INC     BC
1169: 27                                DAA
116A: 03                                INC     BC
116B: FA 02 CF                          JP      M,0CF02h
116E: 02                                LD      (BC),A
116F: A7                                AND     A
1170: 02                                LD      (BC),A
1171: 81                                ADD     A,C
1172: 02                                LD      (BC),A
1173: 5D                                LD      E,L
1174: 02                                LD      (BC),A
1175: 3B                                DEC     SP
1176: 02                                LD      (BC),A
1177: 1B                                DEC     DE
1178: 02                                LD      (BC),A
1179: FC 01 E0                          CALL    M,0E001h
117C: 01 C5 01                          LD      BC,01C5h
117F: AC                                XOR     H
1180: 01 94 01                          LD      BC,0194h
1183: 7D                                LD      A,L
1184: 01 68 01                          LD      BC,0168h
1187: 53                                LD      D,E
1188: 01 40 01                          LD      BC,0140h
118B: 2E 01                             LD      L,01h
118D: 1D                                DEC     E
118E: 01 0D 01                          LD      BC,010Dh
1191: FE 00                             CP      00h
1193: F0                                RET     P
1194: 00                                NOP
1195: E2 00 D6                          JP      PO,0D600h
1198: 00                                NOP
1199: CA 00 BE                          JP      Z,0BE00h
119C: 00                                NOP
119D: B4                                OR      H
119E: 00                                NOP
119F: AA                                XOR     D
11A0: 00                                NOP
11A1: A0                                AND     B
11A2: 00                                NOP
11A3: 97                                SUB     A
11A4: 00                                NOP
11A5: 8F                                ADC     A,A
11A6: 00                                NOP
11A7: 87                                ADD     A,A
11A8: 00                                NOP
11A9: 7F                                LD      A,A
11AA: 00                                NOP
11AB: 78                                LD      A,B
11AC: 00                                NOP
11AD: 71                                LD      (HL),C
11AE: 00                                NOP
11AF: 6B                                LD      L,E
11B0: 00                                NOP
11B1: 65                                LD      H,L
11B2: 00                                NOP
11B3: 5F                                LD      E,A
11B4: 00                                NOP
11B5: 5A                                LD      E,D
11B6: 00                                NOP
11B7: 55                                LD      D,L
11B8: 00                                NOP
11B9: 50                                LD      D,B
11BA: 00                                NOP
11BB: 4C                                LD      C,H
11BC: 00                                NOP
11BD: 47                                LD      B,A
11BE: 00                                NOP
11BF: 43                                LD      B,E
11C0: 00                                NOP
11C1: 40                                LD      B,B
11C2: 00                                NOP
11C3: 3C                                INC     A
11C4: 00                                NOP
11C5: 39                                ADD     HL,SP
11C6: 00                                NOP
11C7: 35                                DEC     (HL)
11C8: 00                                NOP
11C9: 32 00 2F                          LD      (2F00h),A
11CC: 00                                NOP
11CD: 2D                                DEC     L
11CE: 00                                NOP
11CF: 2A 00 28                          LD      HL,(2800h)
11D2: 00                                NOP
11D3: 26 00                             LD      H,00h
11D5: 23                                INC     HL
11D6: 00                                NOP
11D7: 21 00 20                          LD      HL,2000h
11DA: 00                                NOP
11DB: 1E 00                             LD      E,00h
11DD: 1C                                INC     E
11DE: 00                                NOP
11DF: 1C                                INC     E
11E0: 00                                NOP
                                
                                        ; Referenced from 11F6, 1291, 1657
11E1: 00                        L11E1:  NOP
11E2: 00                                NOP
                                
                                        ; Referenced from 1243, 1268, 1468, 163A
11E3: 00                        L11E3:  NOP
                                
                                        ; Referenced from 11F3, 15DF
11E4: 00                        L11E4:  NOP
                                
                                        ; Referenced from 051C, 09AB
                                        ; --- START PROC L11E5 ---
11E5: CD B7 02                  L11E5:  CALL    L02B7
11E8: 3A AE 15                          LD      A,(L15AE)
11EB: DD 86 1E                          ADD     A,(IX+1Eh)
11EE: F2 F3 11                          JP      P,L11F3
11F1: 3E 7F                             LD      A,7Fh           ; ''
                                
                                        ; Referenced from 11EE
11F3: 32 E4 11                  L11F3:  LD      (L11E4),A
11F6: ED 43 E1 11                       LD      (L11E1),BC
11FA: CD 02 03                          CALL    L0302
11FD: CD 41 00                          CALL    L0041
1200: 2A 56 04                          LD      HL,(L0456)
1203: 7E                                LD      A,(HL)
1204: FE 00                             CP      00h
1206: CA 0E 14                          JP      Z,L140E
1209: FE 01                             CP      01h
120B: CA D6 12                          JP      Z,L12D6
120E: FE 02                             CP      02h
1210: CA 22 12                          JP      Z,L1222
1213: FE 03                             CP      03h
1215: CA 19 12                          JP      Z,L1219
1218: C9                                RET
                                
                                        ; Referenced from 1215
1219: FD 21 B3 17               L1219:  LD      IY,17B3h
121D: CD 22 18                          CALL    L1822
1220: 18 07                             JR      L1229
                                
                                        ; Referenced from 1210
1222: FD 21 9D 17               L1222:  LD      IY,179Dh
1226: CD BF 17                          CALL    L17BF
                                
                                        ; Referenced from 1220
1229: FE FF                     L1229:  CP      0FFh
122B: C8                                RET     Z
122C: CD 38 16                          CALL    L1638
122F: 3E 01                             LD      A,01h
1231: 58                                LD      E,B
1232: DD 21 55 0F                       LD      IX,0F55h
1236: 16 00                             LD      D,00h
1238: DD 19                             ADD     IX,DE
123A: CD 87 10                          CALL    L1087
123D: DD 2A 56 04                       LD      IX,(L0456)
1241: DD 23                             INC     IX
1243: 3A E3 11                          LD      A,(L11E3)
1246: 4F                                LD      C,A
1247: 06 00                             LD      B,00h
1249: FD 21 09 00                       LD      IY,0009h
124D: FD 09                             ADD     IY,BC
124F: 7B                                LD      A,E
1250: E6 0F                             AND     0Fh
1252: FD 77 1C                          LD      (IY+1Ch),A
1255: CB 3A                             SRL     D
1257: CB 1B                             RR      E
1259: CB 3A                             SRL     D
125B: CB 1B                             RR      E
125D: CB 3A                             SRL     D
125F: CB 1B                             RR      E
1261: CB 3A                             SRL     D
1263: CB 1B                             RR      E
1265: FD 73 20                          LD      (IY+20h),E
1268: 3A E3 11                          LD      A,(L11E3)
126B: FE 03                             CP      03h
126D: 20 34                             JR      NZ,L12A3
126F: 21 AB 17                          LD      HL,17ABh
1272: CB AE                             RES     5,(HL)
1274: DD 7E FF                          LD      A,(IX-01h)
1277: E6 03                             AND     03h
1279: FE 03                             CP      03h
127B: 20 20                             JR      NZ,L129D
127D: 21 11 7F                          LD      HL,7F11h
1280: FD 7E 1C                          LD      A,(IY+1Ch)
1283: F6 C0                             OR      0C0h
1285: 77                                LD      (HL),A
1286: FD 7E 20                          LD      A,(IY+20h)
1289: 77                                LD      (HL),A
128A: 21 AB 17                          LD      HL,17ABh
128D: 36 A2                             LD      (HL),0A2h
128F: 23                                INC     HL
1290: 23                                INC     HL
1291: ED 4B E1 11                       LD      BC,(L11E1)
1295: 71                                LD      (HL),C
1296: 23                                INC     HL
1297: 70                                LD      (HL),B
1298: 21 0B 00                          LD      HL,000Bh
129B: 36 04                             LD      (HL),04h
                                
                                        ; Referenced from 127B
129D: DD 7E 00                  L129D:  LD      A,(IX+00h)
12A0: FD 77 1C                          LD      (IY+1Ch),A
                                
                                        ; Referenced from 126D
12A3: DD 7E 01                  L12A3:  LD      A,(IX+01h)
12A6: FD 77 08                          LD      (IY+08h),A
12A9: DD 7E 02                          LD      A,(IX+02h)
12AC: CB 27                             SLA     A
12AE: CB 27                             SLA     A
12B0: CB 27                             SLA     A
12B2: CB 27                             SLA     A
12B4: FD 77 10                          LD      (IY+10h),A
12B7: DD 7E 03                          LD      A,(IX+03h)
12BA: CB 27                             SLA     A
12BC: CB 27                             SLA     A
12BE: CB 27                             SLA     A
12C0: CB 27                             SLA     A
12C2: FD 77 24                          LD      (IY+24h),A
12C5: DD 7E 04                          LD      A,(IX+04h)
12C8: FD 77 0C                          LD      (IY+0Ch),A
12CB: DD 7E 05                          LD      A,(IX+05h)
12CE: FD 77 14                          LD      (IY+14h),A
12D1: FD CB 00 C6                       SET     0,(IY+00h)
12D5: C9                                RET
                                
                                        ; Referenced from 120B
12D6: FD 21 8E 17               L12D6:  LD      IY,178Eh
12DA: CD 22 18                          CALL    L1822
12DD: FE FF                             CP      0FFh
12DF: C8                                RET     Z
12E0: CB 7F                             BIT     7,A
12E2: 20 1F                             JR      NZ,L1303
12E4: 3E C9                             LD      A,0C9h
12E6: 32 B7 02                          LD      (L02B7),A
12E9: 7E                                LD      A,(HL)
12EA: CB 6F                             BIT     5,A
12EC: 20 15                             JR      NZ,L1303
12EE: E6 07                             AND     07h
12F0: FD 21 00 40                       LD      IY,4000h
12F4: 7F                                LD      A,A
                                
                                        ; Referenced from 12F9
12F5: FD CB 00 7E               L12F5:  BIT     7,(IY+00h)
12F9: 20 FA                             JR      NZ,L12F5
12FB: FD 36 00 28                       LD      (IY+00h),28h    ; '('
12FF: FD 77 01                          LD      (IY+01h),A
1302: 7E                                LD      A,(HL)
                                
                                        ; Referenced from 12E2, 12EC
1303: CD 38 16                  L1303:  CALL    L1638
1306: 21 8E 17                          LD      HL,178Eh
1309: CB EE                             SET     5,(HL)
130B: 79                                LD      A,C
130C: D6 30                             SUB     30h             ; '0'
130E: 30 02                             JR      NC,L1312
1310: C6 60                             ADD     A,60h           ; '`'
                                
                                        ; Referenced from 130E
1312: 4F                        L1312:  LD      C,A
1313: 06 00                             LD      B,00h
1315: 2A 75 0A                          LD      HL,(L0A75)
1318: 3A 77 0A                          LD      A,(L0A77)
131B: CB 21                             SLA     C
131D: CB 10                             RL      B
131F: CB 21                             SLA     C
1321: CB 10                             RL      B
1323: 09                                ADD     HL,BC
1324: CE 00                             ADC     A,00h
1326: CB 21                             SLA     C
1328: CB 10                             RL      B
132A: 09                                ADD     HL,BC
132B: CE 00                             ADC     A,00h
132D: 0E 0C                             LD      C,0Ch
132F: 11 00 14                          LD      DE,1400h
1332: CD F9 01                          CALL    L01F9
1335: ED 4B 06 14                       LD      BC,(L1406)
1339: 78                                LD      A,B
133A: B1                                OR      C
133B: 20 06                             JR      NZ,L1343
133D: 21 8E 17                          LD      HL,178Eh
1340: 36 C6                             LD      (HL),0C6h
1342: C9                                RET
                                
                                        ; Referenced from 133B
1343: 2A 56 04                  L1343:  LD      HL,(L0456)
1346: 23                                INC     HL
1347: 7E                                LD      A,(HL)
1348: FE 04                             CP      04h
134A: 28 0A                             JR      Z,L1356
134C: 47                                LD      B,A
134D: 3A 00 14                          LD      A,(L1400)
1350: E6 F0                             AND     0F0h
1352: B0                                OR      B
1353: 32 00 14                          LD      (L1400),A
                                
                                        ; Referenced from 134A
1356: D9                        L1356:  EXX
1357: 1E 00                             LD      E,00h
1359: 36 24                             LD      (HL),24h        ; '$'
135B: 23                                INC     HL
135C: 3A 00 14                          LD      A,(L1400)
135F: E6 0F                             AND     0Fh
1361: ED 44                             NEG
1363: CB 2F                             SRA     A
1365: CB 2F                             SRA     A
1367: 77                                LD      (HL),A
1368: 2B                                DEC     HL
1369: 36 25                             LD      (HL),25h        ; '%'
136B: 23                                INC     HL
136C: 3A 00 14                          LD      A,(L1400)
136F: E6 0F                             AND     0Fh
1371: ED 44                             NEG
1373: E6 03                             AND     03h
1375: 77                                LD      (HL),A
1376: 2B                                DEC     HL
1377: 36 2B                             LD      (HL),2Bh        ; '+'
1379: 23                                INC     HL
137A: 36 80                             LD      (HL),80h
137C: 2B                                DEC     HL
137D: 36 27                             LD      (HL),27h        ; '''
137F: 23                                INC     HL
1380: 70                                LD      (HL),B
1381: 2B                                DEC     HL
1382: D9                                EXX
1383: FD 21 02 40                       LD      IY,4002h
1387: 3E C0                             LD      A,0C0h
                                
                                        ; Referenced from 138D
1389: FD CB 00 7E               L1389:  BIT     7,(IY+00h)
138D: 20 FA                             JR      NZ,L1389
138F: FD 36 00 B6                       LD      (IY+00h),0B6h
1393: FD 77 01                          LD      (IY+01h),A
1396: ED 4B 75 0A                       LD      BC,(L0A75)
139A: 3A 77 0A                          LD      A,(L0A77)
139D: 57                                LD      D,A
139E: 2A 01 14                          LD      HL,(L1401)
13A1: 3A 03 14                          LD      A,(L1403)
13A4: 09                                ADD     HL,BC
13A5: 8A                                ADC     A,D
13A6: ED 4B 04 14                       LD      BC,(L1404)
13AA: 09                                ADD     HL,BC
13AB: CE 00                             ADC     A,00h
13AD: 22 FC 02                          LD      (L02FC),HL
13B0: 32 FE 02                          LD      (L02FE),A
13B3: 2A 06 14                          LD      HL,(L1406)
13B6: 22 FF 02                          LD      (L02FF),HL
13B9: 3E 00                             LD      A,00h
13BB: 32 02 03                          LD      (L0302),A
13BE: 32 FB 02                          LD      (L02FB),A
13C1: 3A 00 14                          LD      A,(L1400)
13C4: CB 67                             BIT     4,A
13C6: 3E 04                             LD      A,04h
13C8: 28 01                             JR      Z,L13CB
13CA: 3C                                INC     A
                                
                                        ; Referenced from 13C8
13CB: 32 01 03                  L13CB:  LD      (L0301),A
13CE: CD 10 03                          CALL    L0310
13D1: 3E D9                             LD      A,0D9h
13D3: 32 B7 02                          LD      (L02B7),A
13D6: 3E 08                             LD      A,08h
13D8: 32 B8 02                          LD      (L02B7+1),A     ; reference not aligned to instruction
13DB: 3A 00 14                          LD      A,(L1400)
13DE: E6 0F                             AND     0Fh
13E0: FE 0A                             CP      0Ah
13E2: 3E 00                             LD      A,00h
13E4: 30 02                             JR      NC,L13E8
13E6: 3E C9                             LD      A,0C9h
                                
                                        ; Referenced from 13E4
13E8: 32 CF 02                  L13E8:  LD      (L02CF),A
13EB: 3A 00 14                          LD      A,(L1400)
13EE: CB 7F                             BIT     7,A
13F0: 21 00 00                          LD      HL,0000h
13F3: 28 07                             JR      Z,L13FC
13F5: 2A B5 02                          LD      HL,(L02B5)
13F8: D9                                EXX
13F9: 0E AA                             LD      C,0AAh
13FB: D9                                EXX
                                
                                        ; Referenced from 13F3
13FC: 22 C4 02                  L13FC:  LD      (L02C4),HL
13FF: C9                                RET
                                
                                        ; Referenced from 134D, 1353, 135C, 136C, 13C1, 13DB, 13EB, 16F1
1400: 00                        L1400:  NOP
                                
                                        ; Referenced from 139E
1401: 00                        L1401:  NOP
1402: 00                                NOP
                                
                                        ; Referenced from 13A1
1403: 00                        L1403:  NOP
                                
                                        ; Referenced from 13A6
1404: 00                        L1404:  NOP
1405: 00                                NOP
                                
                                        ; Referenced from 1335, 13B3
1406: 00                        L1406:  NOP
1407: 00                                NOP
                                
                                        ; Referenced from 038A
1408: 00                        L1408:  NOP
1409: 00                                NOP
140A: 00                                NOP
140B: 00                                NOP
                                
                                        ; Referenced from 0FDB, 145B
140C: 00                        L140C:  NOP
140D: 00                                NOP
                                
                                        ; Referenced from 1206
140E: 23                        L140E:  INC     HL
140F: 23                                INC     HL
1410: 56                                LD      D,(HL)
1411: CB 72                             BIT     6,D
1413: 28 09                             JR      Z,L141E
1415: FD 21 95 17                       LD      IY,1795h
1419: CD 22 18                          CALL    L1822
141C: 18 07                             JR      L1425
                                
                                        ; Referenced from 1413
141E: FD 21 72 17               L141E:  LD      IY,1772h
1422: CD BF 17                          CALL    L17BF
                                
                                        ; Referenced from 141C
1425: CD B7 02                  L1425:  CALL    L02B7
1428: FE FF                             CP      0FFh
142A: C8                                RET     Z
142B: CB 7F                             BIT     7,A
142D: 20 15                             JR      NZ,L1444
142F: E6 07                             AND     07h
1431: FD 21 00 40                       LD      IY,4000h
1435: 7F                                LD      A,A
                                
                                        ; Referenced from 143A
1436: FD CB 00 7E               L1436:  BIT     7,(IY+00h)
143A: 20 FA                             JR      NZ,L1436
143C: FD 36 00 28                       LD      (IY+00h),28h    ; '('
1440: FD 77 01                          LD      (IY+01h),A
1443: 7E                                LD      A,(HL)
                                
                                        ; Referenced from 142D
1444: D5                        L1444:  PUSH    DE
1445: CD 38 16                          CALL    L1638
1448: D1                                POP     DE
1449: CB 72                             BIT     6,D
144B: 20 15                             JR      NZ,L1462
144D: 3E 00                             LD      A,00h
144F: 58                                LD      E,B
1450: DD 21 55 0F                       LD      IX,0F55h
1454: 16 00                             LD      D,00h
1456: DD 19                             ADD     IX,DE
1458: CD 87 10                          CALL    L1087
145B: ED 53 0C 14                       LD      (L140C),DE
145F: CD B7 02                          CALL    L02B7
                                
                                        ; Referenced from 144B
1462: DD 2A 56 04               L1462:  LD      IX,(L0456)
1466: DD 23                             INC     IX
1468: 3A E3 11                          LD      A,(L11E3)
146B: 4F                                LD      C,A
146C: FD 21 00 40                       LD      IY,4000h
1470: FE 02                             CP      02h
1472: 20 1E                             JR      NZ,L1492
1474: DD 7E 01                          LD      A,(IX+01h)
1477: F6 15                             OR      15h
1479: D9                                EXX
147A: 47                                LD      B,A
147B: D9                                EXX
147C: DD 7E 01                          LD      A,(IX+01h)
147F: F6 05                             OR      05h
1481: 67                                LD      H,A
1482: 2E 27                             LD      L,27h           ; '''
                                
                                        ; Referenced from 1488
1484: FD CB 00 7E               L1484:  BIT     7,(IY+00h)
1488: 20 FA                             JR      NZ,L1484
148A: 7D                                LD      A,L
148B: 32 00 40                          LD      (4000h),A
148E: 7C                                LD      A,H
148F: 32 01 40                          LD      (4001h),A
                                
                                        ; Referenced from 1472
1492: 16 00                     L1492:  LD      D,00h
1494: 79                                LD      A,C
1495: FE 03                             CP      03h
1497: 38 04                             JR      C,L149D
1499: D6 04                             SUB     04h
149B: 16 02                             LD      D,02h
                                
                                        ; Referenced from 1497
149D: 5F                        L149D:  LD      E,A
149E: DD 66 00                          LD      H,(IX+00h)
14A1: CB 5C                             BIT     3,H
14A3: 28 10                             JR      Z,L14B5
14A5: 2E 22                             LD      L,22h           ; '"'
                                
                                        ; Referenced from 14AB
14A7: FD CB 00 7E               L14A7:  BIT     7,(IY+00h)
14AB: 20 FA                             JR      NZ,L14A7
14AD: 7D                                LD      A,L
14AE: 32 00 40                          LD      (4000h),A
14B1: 7C                                LD      A,H
14B2: 32 01 40                          LD      (4001h),A
                                
                                        ; Referenced from 14A3
14B5: C5                        L14B5:  PUSH    BC
14B6: 21 A5 15                          LD      HL,15A5h
14B9: 06 00                             LD      B,00h
14BB: DD 7E 02                          LD      A,(IX+02h)
14BE: E6 07                             AND     07h
14C0: 4F                                LD      C,A
14C1: 09                                ADD     HL,BC
14C2: 7E                                LD      A,(HL)
14C3: 32 AD 15                          LD      (L15AD),A
14C6: 26 40                             LD      H,40h           ; '@'
14C8: 01 FB 15                          LD      BC,15FBh
14CB: CD AF 15                          CALL    L15AF
14CE: DD CB 01 76                       BIT     6,(IX+01h)
14D2: 20 2D                             JR      NZ,L1501
14D4: FD 21 0C 14                       LD      IY,140Ch
14D8: 2E 00                             LD      L,00h
14DA: 3E A4                             LD      A,0A4h
14DC: 83                                ADD     A,E
14DD: 47                                LD      B,A
14DE: FD 4E 01                          LD      C,(IY+01h)
14E1: 3E 80                             LD      A,80h
                                
                                        ; Referenced from 14E4
14E3: A6                        L14E3:  AND     (HL)
14E4: FA E3 14                          JP      M,L14E3
14E7: 6A                                LD      L,D
14E8: 70                                LD      (HL),B
14E9: 2C                                INC     L
14EA: 71                                LD      (HL),C
14EB: 2E 00                             LD      L,00h
14ED: 3E A0                             LD      A,0A0h
14EF: 83                                ADD     A,E
14F0: 47                                LD      B,A
14F1: FD 4E 00                          LD      C,(IY+00h)
14F4: 3E 80                             LD      A,80h
                                
                                        ; Referenced from 14F7
14F6: A6                        L14F6:  AND     (HL)
14F7: FA F6 14                          JP      M,L14F6
14FA: 6A                                LD      L,D
14FB: 70                                LD      (HL),B
14FC: 2C                                INC     L
14FD: 71                                LD      (HL),C
14FE: C3 85 15                          JP      L1585
                                
                                        ; Referenced from 14D2
1501: FD 21 00 40               L1501:  LD      IY,4000h
1505: DD 7E 1C                          LD      A,(IX+1Ch)
                                
                                        ; Referenced from 150C
1508: FD CB 00 7E               L1508:  BIT     7,(IY+00h)
150C: 20 FA                             JR      NZ,L1508
150E: FD 36 00 A6                       LD      (IY+00h),0A6h
1512: FD 77 01                          LD      (IY+01h),A
1515: DD 7E 1D                          LD      A,(IX+1Dh)
                                
                                        ; Referenced from 151C
1518: FD CB 00 7E               L1518:  BIT     7,(IY+00h)
151C: 20 FA                             JR      NZ,L1518
151E: FD 36 00 A2                       LD      (IY+00h),0A2h
1522: FD 77 01                          LD      (IY+01h),A
1525: DD 7E 1E                          LD      A,(IX+1Eh)
                                
                                        ; Referenced from 152C
1528: FD CB 00 7E               L1528:  BIT     7,(IY+00h)
152C: 20 FA                             JR      NZ,L1528
152E: FD 36 00 AC                       LD      (IY+00h),0ACh
1532: FD 77 01                          LD      (IY+01h),A
1535: DD 7E 1F                          LD      A,(IX+1Fh)
                                
                                        ; Referenced from 153C
1538: FD CB 00 7E               L1538:  BIT     7,(IY+00h)
153C: 20 FA                             JR      NZ,L1538
153E: FD 36 00 A8                       LD      (IY+00h),0A8h
1542: FD 77 01                          LD      (IY+01h),A
1545: DD 7E 20                          LD      A,(IX+20h)
                                
                                        ; Referenced from 154C
1548: FD CB 00 7E               L1548:  BIT     7,(IY+00h)
154C: 20 FA                             JR      NZ,L1548
154E: FD 36 00 AD                       LD      (IY+00h),0ADh
1552: FD 77 01                          LD      (IY+01h),A
1555: DD 7E 21                          LD      A,(IX+21h)
                                
                                        ; Referenced from 155C
1558: FD CB 00 7E               L1558:  BIT     7,(IY+00h)
155C: 20 FA                             JR      NZ,L1558
155E: FD 36 00 A9                       LD      (IY+00h),0A9h
1562: FD 77 01                          LD      (IY+01h),A
1565: DD 7E 22                          LD      A,(IX+22h)
                                
                                        ; Referenced from 156C
1568: FD CB 00 7E               L1568:  BIT     7,(IY+00h)
156C: 20 FA                             JR      NZ,L1568
156E: FD 36 00 AE                       LD      (IY+00h),0AEh
1572: FD 77 01                          LD      (IY+01h),A
1575: DD 7E 23                          LD      A,(IX+23h)
                                
                                        ; Referenced from 157C
1578: FD CB 00 7E               L1578:  BIT     7,(IY+00h)
157C: 20 FA                             JR      NZ,L1578
157E: FD 36 00 AA                       LD      (IY+00h),0AAh
1582: FD 77 01                          LD      (IY+01h),A
                                
                                        ; Referenced from 14FE
1585: DD 7E 24                  L1585:  LD      A,(IX+24h)
1588: CB 27                             SLA     A
158A: CB 27                             SLA     A
158C: CB 27                             SLA     A
158E: CB 27                             SLA     A
1590: C1                                POP     BC
1591: B1                                OR      C
1592: FD 21 00 40                       LD      IY,4000h
1596: 7F                                LD      A,A
                                
                                        ; Referenced from 159B
1597: FD CB 00 7E               L1597:  BIT     7,(IY+00h)
159B: 20 FA                             JR      NZ,L1597
159D: FD 36 00 28                       LD      (IY+00h),28h    ; '('
15A1: FD 77 01                          LD      (IY+01h),A
15A4: C9                                RET
                                
15A5: 08                        L15A5:  EX      AF,AF'
15A6: 08                                EX      AF,AF'
15A7: 08                                EX      AF,AF'
15A8: 08                                EX      AF,AF'
15A9: 0A                                LD      A,(BC)
15AA: 0E 0E                             LD      C,0Eh
15AC: 0F                                RRCA
                                
                                        ; Referenced from 14C3
15AD: 00                        L15AD:  NOP
                                
                                        ; Referenced from 0796, 0B7E, 11E8
15AE: 00                        L15AE:  NOP
                                
                                        ; Referenced from 14CB, 15F8
                                        ; --- START PROC L15AF ---
15AF: 0A                        L15AF:  LD      A,(BC)
15B0: B7                                OR      A
15B1: C8                                RET     Z
15B2: 03                                INC     BC
15B3: 2E 00                             LD      L,00h
                                
                                        ; Referenced from 15B7
15B5: CB 7E                     L15B5:  BIT     7,(HL)
15B7: 20 FC                             JR      NZ,L15B5
15B9: 6A                                LD      L,D
15BA: 83                                ADD     A,E
15BB: 77                                LD      (HL),A
15BC: 2C                                INC     L
15BD: 0A                                LD      A,(BC)
15BE: B7                                OR      A
15BF: CA F6 15                          JP      Z,L15F6
15C2: F2 F0 15                          JP      P,L15F0
15C5: E6 7F                             AND     7Fh             ; ''
15C7: E5                                PUSH    HL
15C8: 21 AD 15                          LD      HL,15ADh
15CB: CB 1E                             RR      (HL)
15CD: D2 EF 15                          JP      NC,L15EF
15D0: D5                                PUSH    DE
15D1: 32 D8 15                          LD      (L15D6+2),A     ; reference not aligned to instruction
15D4: 3E 7F                             LD      A,7Fh           ; ''
                                
                                        ; Referenced from 15D1
15D6: DD 96 00                  L15D6:  SUB     (IX+00h)
15D9: F5                                PUSH    AF
15DA: CB 27                             SLA     A
15DC: 5F                                LD      E,A
15DD: 16 00                             LD      D,00h
15DF: 3A E4 11                          LD      A,(L11E4)
15E2: CD 38 11                          CALL    L1138
15E5: F1                                POP     AF
15E6: 94                                SUB     H
15E7: 67                                LD      H,A
15E8: 3E 7F                             LD      A,7Fh           ; ''
15EA: 94                                SUB     H
15EB: D1                                POP     DE
15EC: E1                                POP     HL
15ED: 18 07                             JR      L15F6
                                
                                        ; Referenced from 15CD
15EF: E1                        L15EF:  POP     HL
                                
                                        ; Referenced from 15C2
15F0: 32 F5 15                  L15F0:  LD      (L15F3+2),A     ; reference not aligned to instruction
                                
                                        ; Referenced from 15F0
15F3: DD 7E 00                  L15F3:  LD      A,(IX+00h)
                                
                                        ; Referenced from 15BF, 15ED
15F6: 77                        L15F6:  LD      (HL),A
15F7: 03                                INC     BC
15F8: C3 AF 15                          JP      L15AF
                                
15FB: B0                        L15FB:  OR      B
15FC: 02                                LD      (BC),A
15FD: B4                                OR      H
15FE: 03                                INC     BC
15FF: 30 04                             JR      NC,L1604+1      ; reference not aligned to instruction
1601: 40                                LD      B,B
1602: 85                                ADD     A,L
1603: 50                                LD      D,B
                                
                                        ; Referenced from 15FF
1604: 06 60                     L1604:  LD      B,60h           ; '`'
1606: 07                                RLCA
1607: 70                                LD      (HL),B
1608: 08                                EX      AF,AF'
1609: 80                                ADD     A,B
160A: 09                                ADD     HL,BC
160B: 90                                SUB     B
160C: 00                                NOP
160D: 38 10                             JR      C,L161F
160F: 48                                LD      C,B
1610: 91                                SUB     C
1611: 58                                LD      E,B
1612: 12                                LD      (DE),A
1613: 68                                LD      L,B
1614: 13                                INC     DE
1615: 78                                LD      A,B
1616: 14                                INC     D
1617: 88                                ADC     A,B
1618: 15                                DEC     D
1619: 98                                SBC     A,B
161A: 00                                NOP
161B: 34                                INC     (HL)
161C: 0A                                LD      A,(BC)
161D: 44                                LD      B,H
161E: 8B                                ADC     A,E
                                
                                        ; Referenced from 160D
161F: 54                        L161F:  LD      D,H
1620: 0C                                INC     C
1621: 64                                LD      H,H
1622: 0D                                DEC     C
1623: 74                                LD      (HL),H
1624: 0E 84                             LD      C,84h
1626: 0F                                RRCA
1627: 94                                SUB     H
1628: 00                                NOP
1629: 3C                                INC     A
162A: 16 4C                             LD      D,4Ch           ; 'L'
162C: 97                                SUB     A
162D: 5C                                LD      E,H
162E: 18 6C                             JR      L169C
                                
1630: 19                        L1630:  ADD     HL,DE
1631: 7C                                LD      A,H
1632: 1A                                LD      A,(DE)
1633: 8C                                ADC     A,H
1634: 1B                                DEC     DE
1635: 9C                                SBC     A,H
1636: 00                                NOP
1637: 00                                NOP
                                
                                        ; Referenced from 122C, 1303, 1445
                                        ; --- START PROC L1638 ---
1638: E6 07                     L1638:  AND     07h
163A: 32 E3 11                          LD      (L11E3),A
163D: 77                                LD      (HL),A
163E: DD 5E 0B                          LD      E,(IX+0Bh)
1641: DD 56 0C                          LD      D,(IX+0Ch)
1644: 7A                                LD      A,D
1645: B3                                OR      E
1646: 28 02                             JR      Z,L164A
1648: CB E6                             SET     4,(HL)
                                
                                        ; Referenced from 1646
164A: DD CB 06 5E               L164A:  BIT     3,(IX+06h)
164E: 28 02                             JR      Z,L1652
1650: CB DE                             SET     3,(HL)
                                
                                        ; Referenced from 164E
1652: 23                        L1652:  INC     HL
1653: DD 7E 1C                          LD      A,(IX+1Ch)
1656: 77                                LD      (HL),A
1657: ED 4B E1 11                       LD      BC,(L11E1)
165B: 23                                INC     HL
165C: 71                                LD      (HL),C
165D: 23                                INC     HL
165E: 70                                LD      (HL),B
165F: 23                                INC     HL
1660: 73                                LD      (HL),E
1661: 23                                INC     HL
1662: 72                                LD      (HL),D
1663: 23                                INC     HL
1664: 36 FE                             LD      (HL),0FEh
1666: CD B7 02                          CALL    L02B7
1669: DD CB 06 76                       BIT     6,(IX+06h)
166D: C8                                RET     Z
166E: C5                                PUSH    BC
166F: DD 4E 1D                          LD      C,(IX+1Dh)
1672: 58                                LD      E,B
1673: CD 06 0E                          CALL    L0E06
1676: CD B7 02                          CALL    L02B7
1679: C1                                POP     BC
167A: C9                                RET
                                
                                        ; Referenced from 167D, 16AE, 16D0
167B: 00                        L167B:  NOP
167C: 00                                NOP
                                
                                        ; Referenced from 09B9
                                        ; --- START PROC L167D ---
167D: ED 43 7B 16               L167D:  LD      (L167B),BC
1681: DD 21 72 17                       LD      IX,1772h
1685: CD B7 02                          CALL    L02B7
1688: CD 39 18                          CALL    L1839
168B: FE FF                             CP      0FFh
168D: 28 1F                             JR      Z,L16AE
168F: E6 27                             AND     27h             ; '''
1691: FE 26                             CP      26h             ; '&'
1693: 28 15                             JR      Z,L16AA
1695: E6 07                             AND     07h
1697: FD 21 00 40                       LD      IY,4000h
169B: 7F                                LD      A,A
                                
                                        ; Referenced from 162E, 16A0
169C: FD CB 00 7E               L169C:  BIT     7,(IY+00h)
16A0: 20 FA                             JR      NZ,L169C
16A2: FD 36 00 28                       LD      (IY+00h),28h    ; '('
16A6: FD 77 01                          LD      (IY+01h),A
16A9: C9                                RET
                                
                                        ; Referenced from 1693
16AA: CD F1 16                  L16AA:  CALL    L16F1
16AD: C9                                RET
                                
                                        ; Referenced from 168D
16AE: ED 4B 7B 16               L16AE:  LD      BC,(L167B)
16B2: DD 21 9D 17                       LD      IX,179Dh
16B6: CD B7 02                          CALL    L02B7
16B9: CD 39 18                          CALL    L1839
16BC: FE FF                             CP      0FFh
16BE: 28 10                             JR      Z,L16D0
16C0: E6 03                             AND     03h
16C2: DD 21 09 00                       LD      IX,0009h
16C6: 4F                                LD      C,A
16C7: 06 00                             LD      B,00h
16C9: DD 09                             ADD     IX,BC
16CB: DD CB 00 CE                       SET     1,(IX+00h)
16CF: C9                                RET
                                
                                        ; Referenced from 16BE
16D0: ED 4B 7B 16               L16D0:  LD      BC,(L167B)
16D4: DD 21 B3 17                       LD      IX,17B3h
16D8: CD B7 02                          CALL    L02B7
16DB: CD 39 18                          CALL    L1839
16DE: FE FF                             CP      0FFh
16E0: C8                                RET     Z
16E1: E6 03                             AND     03h
16E3: DD 21 09 00                       LD      IX,0009h
16E7: 4F                                LD      C,A
16E8: 06 00                             LD      B,00h
16EA: DD 09                             ADD     IX,BC
16EC: DD CB 00 CE                       SET     1,(IX+00h)
16F0: C9                                RET
                                
                                        ; Referenced from 0867, 16AA
                                        ; --- START PROC L16F1 ---
16F1: 3A 00 14                  L16F1:  LD      A,(L1400)
16F4: CB 6F                             BIT     5,A
16F6: 20 07                             JR      NZ,L16FF
16F8: CB 67                             BIT     4,A
16FA: C8                                RET     Z
16FB: 3E 06                             LD      A,06h
16FD: 18 02                             JR      L1701
                                
                                        ; Referenced from 16F6
16FF: 3E 07                     L16FF:  LD      A,07h
                                
                                        ; Referenced from 16FD
1701: 32 01 03                  L1701:  LD      (L0301),A
1704: C9                                RET
                                
                                        ; Referenced from 0E5D, 1730
1705: 00                        L1705:  NOP
1706: 00                                NOP
                                
                                        ; Referenced from 09BF
                                        ; --- START PROC L1707 ---
1707: CD 6C 08                  L1707:  CALL    L086C
170A: CD 30 11                          CALL    L1130
170D: 22 56 04                          LD      (L0456),HL
1710: CD D1 01                          CALL    L01D1
1713: DD 77 0D                          LD      (IX+0Dh),A
                                
                                        ; Referenced from 05E1, 175B
                                        ; --- START PROC L1716 ---
1716: 16 00                     L1716:  LD      D,00h
1718: DD 5E 0D                          LD      E,(IX+0Dh)
171B: CB 23                             SLA     E
171D: CB 12                             RL      D
171F: 2A 6C 0A                          LD      HL,(L0A6C)
1722: 3A 6E 0A                          LD      A,(L0A6E)
1725: 19                                ADD     HL,DE
1726: CE 00                             ADC     A,00h
1728: 0E 02                             LD      C,02h
172A: 11 05 17                          LD      DE,1705h
172D: CD F9 01                          CALL    L01F9
1730: ED 5B 05 17                       LD      DE,(L1705)
1734: 2A 6C 0A                          LD      HL,(L0A6C)
1737: 3A 6E 0A                          LD      A,(L0A6E)
173A: 19                                ADD     HL,DE
173B: CE 00                             ADC     A,00h
173D: 0E 27                             LD      C,27h           ; '''
173F: ED 5B 56 04                       LD      DE,(L0456)
1743: CD F9 01                          CALL    L01F9
1746: C9                                RET
                                
                                        ; Referenced from 09C8
                                        ; --- START PROC L1747 ---
1747: 47                        L1747:  LD      B,A
1748: 0E 10                             LD      C,10h
174A: DD 21 80 1B                       LD      IX,1B80h
174E: 21 67 18                          LD      HL,1867h
1751: 22 56 04                          LD      (L0456),HL
                                
                                        ; Referenced from 176F
1754: 78                        L1754:  LD      A,B
1755: DD BE 0D                          CP      (IX+0Dh)
1758: 20 05                             JR      NZ,L175F
175A: C5                                PUSH    BC
175B: CD 16 17                          CALL    L1716
175E: C1                                POP     BC
                                
                                        ; Referenced from 1758
175F: 11 20 00                  L175F:  LD      DE,0020h
1762: DD 19                             ADD     IX,DE
1764: 11 27 00                          LD      DE,0027h
1767: 2A 56 04                          LD      HL,(L0456)
176A: 19                                ADD     HL,DE
176B: 22 56 04                          LD      (L0456),HL
176E: 0D                                DEC     C
176F: 20 E3                             JR      NZ,L1754
1771: C9                                RET
                                
1772: 80                        L1772:  ADD     A,B
1773: 00                                NOP
1774: 50                                LD      D,B
1775: 00                                NOP
1776: 00                                NOP
1777: 00                                NOP
1778: 00                                NOP
1779: 81                                ADD     A,C
177A: 00                                NOP
177B: 50                                LD      D,B
177C: 00                                NOP
177D: 00                                NOP
177E: 00                                NOP
177F: 00                                NOP
1780: 84                                ADD     A,H
1781: 00                                NOP
1782: 50                                LD      D,B
1783: 00                                NOP
1784: 00                                NOP
1785: 00                                NOP
1786: 00                                NOP
1787: 85                                ADD     A,L
1788: 00                                NOP
1789: 50                                LD      D,B
178A: 00                                NOP
178B: 00                                NOP
178C: 00                                NOP
178D: 00                                NOP
178E: 86                                ADD     A,(HL)
178F: 00                                NOP
1790: 50                                LD      D,B
1791: 00                                NOP
1792: 00                                NOP
1793: 00                                NOP
1794: 00                                NOP
1795: 82                                ADD     A,D
1796: 00                                NOP
1797: 50                                LD      D,B
1798: 00                                NOP
1799: 00                                NOP
179A: 00                                NOP
179B: 00                                NOP
179C: FF                                RST     0x38
                                
179D: 80                        L179D:  ADD     A,B
179E: 00                                NOP
179F: 50                                LD      D,B
17A0: 00                                NOP
17A1: 00                                NOP
17A2: 00                                NOP
17A3: 00                                NOP
17A4: 81                                ADD     A,C
17A5: 00                                NOP
17A6: 50                                LD      D,B
17A7: 00                                NOP
17A8: 00                                NOP
17A9: 00                                NOP
17AA: 00                                NOP
17AB: 82                                ADD     A,D
17AC: 00                                NOP
17AD: 50                                LD      D,B
17AE: 00                                NOP
17AF: 00                                NOP
17B0: 00                                NOP
17B1: 00                                NOP
17B2: FF                                RST     0x38
                                
17B3: 83                        L17B3:  ADD     A,E
17B4: 00                                NOP
17B5: 50                                LD      D,B
17B6: 00                                NOP
17B7: 00                                NOP
17B8: 00                                NOP
17B9: 00                                NOP
17BA: FF                                RST     0x38
                                
                                        ; Referenced from 17E6, 181D, 1833
17BB: 00                        L17BB:  NOP
17BC: 00                                NOP
                                
                                        ; Referenced from 1802, 180D
17BD: 00                        L17BD:  NOP
17BE: 00                                NOP
                                
                                        ; Referenced from 1226, 1422
                                        ; --- START PROC L17BF ---
17BF: 0E FF                     L17BF:  LD      C,0FFh
17C1: 2E FF                             LD      L,0FFh
17C3: 11 07 00                          LD      DE,0007h
17C6: DD 66 06                          LD      H,(IX+06h)
17C9: 18 02                             JR      L17CD
                                
                                        ; Referenced from 17D9, 17E3, 17EA, 17FF, 1806
17CB: FD 19                     L17CB:  ADD     IY,DE
                                
                                        ; Referenced from 17C9
17CD: CD B7 02                  L17CD:  CALL    L02B7
17D0: FD 7E 00                          LD      A,(IY+00h)
17D3: FE FF                             CP      0FFh
17D5: 28 31                             JR      Z,L1808
17D7: CB 6F                             BIT     5,A
17D9: 20 F0                             JR      NZ,L17CB
17DB: CB 7F                             BIT     7,A
17DD: 20 0D                             JR      NZ,L17EC
17DF: FD 7E 01                          LD      A,(IY+01h)
17E2: B9                                CP      C
17E3: 30 E6                             JR      NC,L17CB
17E5: 4F                                LD      C,A
17E6: FD 22 BB 17                       LD      (L17BB),IY
17EA: 18 DF                             JR      L17CB
                                
                                        ; Referenced from 17DD
17EC: FD 7E 03                  L17EC:  LD      A,(IY+03h)
17EF: B8                                CP      B
17F0: 20 09                             JR      NZ,L17FB
17F2: CB 7C                             BIT     7,H
17F4: 20 05                             JR      NZ,L17FB
17F6: FD E5                             PUSH    IY
17F8: E1                                POP     HL
17F9: 7E                                LD      A,(HL)
17FA: C9                                RET
                                
                                        ; Referenced from 17F0, 17F4
17FB: FD 7E 06                  L17FB:  LD      A,(IY+06h)
17FE: BD                                CP      L
17FF: 30 CA                             JR      NC,L17CB
1801: 6F                                LD      L,A
1802: FD 22 BD 17                       LD      (L17BD),IY
1806: 18 C3                             JR      L17CB
                                
                                        ; Referenced from 17D5
1808: 7D                        L1808:  LD      A,L
1809: FE FF                             CP      0FFh
180B: 28 05                             JR      Z,L1812
180D: 2A BD 17                          LD      HL,(L17BD)
1810: 7E                                LD      A,(HL)
1811: C9                                RET
                                
                                        ; Referenced from 180B
                                        ; --- START PROC L1812 ---
1812: 79                        L1812:  LD      A,C
                                
                                        ; Referenced from 1837
                                        ; --- START PROC L1813 ---
1813: DD BE 1C                  L1813:  CP      (IX+1Ch)
1816: 28 05                             JR      Z,L181D
1818: 38 03                             JR      C,L181D
181A: 3E FF                             LD      A,0FFh
181C: C9                                RET
                                
                                        ; Referenced from 1816, 1818
181D: 2A BB 17                  L181D:  LD      HL,(L17BB)
1820: 7E                                LD      A,(HL)
1821: C9                                RET
                                
                                        ; Referenced from 121D, 12DA, 1419
                                        ; --- START PROC L1822 ---
1822: CD B7 02                  L1822:  CALL    L02B7
1825: FD 7E 00                          LD      A,(IY+00h)
1828: CB 7F                             BIT     7,A
182A: 28 04                             JR      Z,L1830
182C: FD E5                             PUSH    IY
182E: E1                                POP     HL
182F: C9                                RET
                                
                                        ; Referenced from 182A
1830: FD 7E 01                  L1830:  LD      A,(IY+01h)
1833: FD 22 BB 17                       LD      (L17BB),IY
1837: 18 DA                             JR      L1813
                                
                                        ; Referenced from 1688, 16B9, 16DB
                                        ; --- START PROC L1839 ---
1839: 11 07 00                  L1839:  LD      DE,0007h
183C: 18 02                             JR      L1840
                                
                                        ; Referenced from 1849, 184F, 1855
183E: DD 19                     L183E:  ADD     IX,DE
                                
                                        ; Referenced from 183C
1840: DD 7E 00                  L1840:  LD      A,(IX+00h)
1843: 67                                LD      H,A
1844: FE FF                             CP      0FFh
1846: C8                                RET     Z
1847: CB 7F                             BIT     7,A
1849: 20 F3                             JR      NZ,L183E
184B: DD 7E 02                          LD      A,(IX+02h)
184E: B9                                CP      C
184F: 20 ED                             JR      NZ,L183E
1851: DD 7E 03                          LD      A,(IX+03h)
1854: B8                                CP      B
1855: 20 E7                             JR      NZ,L183E
1857: 7C                                LD      A,H
1858: E6 27                             AND     27h             ; '''
185A: FE 26                             CP      26h             ; '&'
185C: 28 07                             JR      Z,L1865
185E: E6 27                             AND     27h             ; '''
1860: F6 C0                             OR      0C0h
1862: DD 77 00                          LD      (IX+00h),A
                                
                                        ; Referenced from 185C
1865: 7C                        L1865:  LD      A,H
1866: C9                                RET
                                
1867: 00                        L1867:  NOP
                                

1868:
